
/home/wzr/NJU/ics/ics2023/am-kernels/kernels/demo/build/demo-riscv32-nemu.elf:     file format elf32-littleriscv


Disassembly of section .text:

80000000 <_start>:
80000000:	00000413          	li	s0,0
80000004:	00015117          	auipc	sp,0x15
80000008:	ffc10113          	addi	sp,sp,-4 # 80015000 <_end>
8000000c:	689020ef          	jal	ra,80002e94 <_trm_init>

80000010 <ant>:
80000010:	f7010113          	addi	sp,sp,-144
80000014:	03810593          	addi	a1,sp,56
80000018:	00900513          	li	a0,9
8000001c:	08112623          	sw	ra,140(sp)
80000020:	08812423          	sw	s0,136(sp)
80000024:	08912223          	sw	s1,132(sp)
80000028:	09212023          	sw	s2,128(sp)
8000002c:	07312e23          	sw	s3,124(sp)
80000030:	07412c23          	sw	s4,120(sp)
80000034:	07512a23          	sw	s5,116(sp)
80000038:	07612823          	sw	s6,112(sp)
8000003c:	07712623          	sw	s7,108(sp)
80000040:	07812423          	sw	s8,104(sp)
80000044:	07912223          	sw	s9,100(sp)
80000048:	07a12023          	sw	s10,96(sp)
8000004c:	05b12e23          	sw	s11,92(sp)
80000050:	755020ef          	jal	ra,80002fa4 <ioe_read>
80000054:	03c12703          	lw	a4,60(sp)
80000058:	03810593          	addi	a1,sp,56
8000005c:	00008997          	auipc	s3,0x8
80000060:	69098993          	addi	s3,s3,1680 # 800086ec <w>
80000064:	41f75793          	srai	a5,a4,0x1f
80000068:	0037f793          	andi	a5,a5,3
8000006c:	00e787b3          	add	a5,a5,a4
80000070:	4027d793          	srai	a5,a5,0x2
80000074:	00900513          	li	a0,9
80000078:	00f9a023          	sw	a5,0(s3)
8000007c:	729020ef          	jal	ra,80002fa4 <ioe_read>
80000080:	04012583          	lw	a1,64(sp)
80000084:	0009a503          	lw	a0,0(s3)
80000088:	00008617          	auipc	a2,0x8
8000008c:	65460613          	addi	a2,a2,1620 # 800086dc <h>
80000090:	41f5d793          	srai	a5,a1,0x1f
80000094:	0037f713          	andi	a4,a5,3
80000098:	00b70733          	add	a4,a4,a1
8000009c:	40275713          	srai	a4,a4,0x2
800000a0:	02e504b3          	mul	s1,a0,a4
800000a4:	01f55693          	srli	a3,a0,0x1f
800000a8:	0077f793          	andi	a5,a5,7
800000ac:	00a686b3          	add	a3,a3,a0
800000b0:	00b787b3          	add	a5,a5,a1
800000b4:	00e62023          	sw	a4,0(a2)
800000b8:	4037d793          	srai	a5,a5,0x3
800000bc:	4016d713          	srai	a4,a3,0x1
800000c0:	00e12623          	sw	a4,12(sp)
800000c4:	00f12823          	sw	a5,16(sp)
800000c8:	00048513          	mv	a0,s1
800000cc:	160030ef          	jal	ra,8000322c <malloc>
800000d0:	00048613          	mv	a2,s1
800000d4:	0000ca97          	auipc	s5,0xc
800000d8:	14ca8a93          	addi	s5,s5,332 # 8000c220 <pix>
800000dc:	00000593          	li	a1,0
800000e0:	00aaa023          	sw	a0,0(s5)
800000e4:	00000413          	li	s0,0
800000e8:	00009497          	auipc	s1,0x9
800000ec:	86c48493          	addi	s1,s1,-1940 # 80008954 <buf.2>
800000f0:	090030ef          	jal	ra,80003180 <memset>
800000f4:	14000b13          	li	s6,320
800000f8:	00100a13          	li	s4,1
800000fc:	0c800913          	li	s2,200
80000100:	02812e23          	sw	s0,60(sp)
80000104:	03810593          	addi	a1,sp,56
80000108:	00140413          	addi	s0,s0,1
8000010c:	00b00513          	li	a0,11
80000110:	02012c23          	sw	zero,56(sp)
80000114:	04912023          	sw	s1,64(sp)
80000118:	05612223          	sw	s6,68(sp)
8000011c:	05412423          	sw	s4,72(sp)
80000120:	04010623          	sb	zero,76(sp)
80000124:	69d020ef          	jal	ra,80002fc0 <ioe_write>
80000128:	fd241ce3          	bne	s0,s2,80000100 <ant+0xf0>
8000012c:	00100793          	li	a5,1
80000130:	00f12c23          	sw	a5,24(sp)
80000134:	01012783          	lw	a5,16(sp)
80000138:	00336d37          	lui	s10,0x336
8000013c:	00012a23          	sw	zero,20(sp)
80000140:	00178793          	addi	a5,a5,1
80000144:	02f12023          	sw	a5,32(sp)
80000148:	00c12783          	lw	a5,12(sp)
8000014c:	00008417          	auipc	s0,0x8
80000150:	59840413          	addi	s0,s0,1432 # 800086e4 <last_c.1>
80000154:	00008b17          	auipc	s6,0x8
80000158:	7c0b0b13          	addi	s6,s6,1984 # 80008914 <buf.0>
8000015c:	00178793          	addi	a5,a5,1
80000160:	00f12e23          	sw	a5,28(sp)
80000164:	00cc67b7          	lui	a5,0xcc6
80000168:	63378793          	addi	a5,a5,1587 # cc6633 <_entry_offset+0xcc6633>
8000016c:	02f12623          	sw	a5,44(sp)
80000170:	600d0793          	addi	a5,s10,1536 # 336600 <_entry_offset+0x336600>
80000174:	00f12223          	sw	a5,4(sp)
80000178:	0033a7b7          	lui	a5,0x33a
8000017c:	99978793          	addi	a5,a5,-1639 # 339999 <_entry_offset+0x339999>
80000180:	00008917          	auipc	s2,0x8
80000184:	7d490913          	addi	s2,s2,2004 # 80008954 <buf.2>
80000188:	00f12423          	sw	a5,8(sp)
8000018c:	01012603          	lw	a2,16(sp)
80000190:	0009a703          	lw	a4,0(s3)
80000194:	000aa783          	lw	a5,0(s5)
80000198:	00044683          	lbu	a3,0(s0)
8000019c:	02e60733          	mul	a4,a2,a4
800001a0:	00c12603          	lw	a2,12(sp)
800001a4:	00c70733          	add	a4,a4,a2
800001a8:	00e787b3          	add	a5,a5,a4
800001ac:	0007c703          	lbu	a4,0(a5)
800001b0:	1a070c63          	beqz	a4,80000368 <ant+0x358>
800001b4:	00078023          	sb	zero,0(a5)
800001b8:	01812783          	lw	a5,24(sp)
800001bc:	02000713          	li	a4,32
800001c0:	40f007b3          	neg	a5,a5
800001c4:	32e68063          	beq	a3,a4,800004e4 <ant+0x4d4>
800001c8:	01412703          	lw	a4,20(sp)
800001cc:	02000693          	li	a3,32
800001d0:	00f12a23          	sw	a5,20(sp)
800001d4:	00e12c23          	sw	a4,24(sp)
800001d8:	00000713          	li	a4,0
800001dc:	00d40023          	sb	a3,0(s0)
800001e0:	00008797          	auipc	a5,0x8
800001e4:	73478793          	addi	a5,a5,1844 # 80008914 <buf.0>
800001e8:	00e7a023          	sw	a4,0(a5)
800001ec:	00478793          	addi	a5,a5,4
800001f0:	ff279ce3          	bne	a5,s2,800001e8 <ant+0x1d8>
800001f4:	01c12703          	lw	a4,28(sp)
800001f8:	00400793          	li	a5,4
800001fc:	00c12603          	lw	a2,12(sp)
80000200:	00271693          	slli	a3,a4,0x2
80000204:	02012703          	lw	a4,32(sp)
80000208:	01412803          	lw	a6,20(sp)
8000020c:	04f12223          	sw	a5,68(sp)
80000210:	00271713          	slli	a4,a4,0x2
80000214:	02e12e23          	sw	a4,60(sp)
80000218:	04f12423          	sw	a5,72(sp)
8000021c:	01812703          	lw	a4,24(sp)
80000220:	01012783          	lw	a5,16(sp)
80000224:	01060a33          	add	s4,a2,a6
80000228:	03810593          	addi	a1,sp,56
8000022c:	00e787b3          	add	a5,a5,a4
80000230:	00b00513          	li	a0,11
80000234:	00f12823          	sw	a5,16(sp)
80000238:	01412623          	sw	s4,12(sp)
8000023c:	02d12c23          	sw	a3,56(sp)
80000240:	05612023          	sw	s6,64(sp)
80000244:	04010623          	sb	zero,76(sp)
80000248:	579020ef          	jal	ra,80002fc0 <ioe_write>
8000024c:	00008797          	auipc	a5,0x8
80000250:	49078793          	addi	a5,a5,1168 # 800086dc <h>
80000254:	0009ac03          	lw	s8,0(s3)
80000258:	0007ab83          	lw	s7,0(a5)
8000025c:	340a4e63          	bltz	s4,800005b8 <ant+0x5a8>
80000260:	00c12783          	lw	a5,12(sp)
80000264:	2f87d463          	bge	a5,s8,8000054c <ant+0x53c>
80000268:	00c12783          	lw	a5,12(sp)
8000026c:	00178793          	addi	a5,a5,1
80000270:	00f12e23          	sw	a5,28(sp)
80000274:	02f12223          	sw	a5,36(sp)
80000278:	01012783          	lw	a5,16(sp)
8000027c:	1177de63          	bge	a5,s7,80000398 <ant+0x388>
80000280:	01012703          	lw	a4,16(sp)
80000284:	00170793          	addi	a5,a4,1
80000288:	02f12023          	sw	a5,32(sp)
8000028c:	02f12423          	sw	a5,40(sp)
80000290:	26074a63          	bltz	a4,80000504 <ant+0x4f4>
80000294:	00044703          	lbu	a4,0(s0)
80000298:	02b00793          	li	a5,43
8000029c:	02f70063          	beq	a4,a5,800002bc <ant+0x2ac>
800002a0:	00f40023          	sb	a5,0(s0)
800002a4:	00008797          	auipc	a5,0x8
800002a8:	67078793          	addi	a5,a5,1648 # 80008914 <buf.0>
800002ac:	00812703          	lw	a4,8(sp)
800002b0:	00478793          	addi	a5,a5,4
800002b4:	fee7ae23          	sw	a4,-4(a5)
800002b8:	ff279ae3          	bne	a5,s2,800002ac <ant+0x29c>
800002bc:	02412703          	lw	a4,36(sp)
800002c0:	00400793          	li	a5,4
800002c4:	03810593          	addi	a1,sp,56
800002c8:	00271693          	slli	a3,a4,0x2
800002cc:	02812703          	lw	a4,40(sp)
800002d0:	00b00513          	li	a0,11
800002d4:	02d12c23          	sw	a3,56(sp)
800002d8:	00271713          	slli	a4,a4,0x2
800002dc:	02e12e23          	sw	a4,60(sp)
800002e0:	04f12223          	sw	a5,68(sp)
800002e4:	04f12423          	sw	a5,72(sp)
800002e8:	05612023          	sw	s6,64(sp)
800002ec:	04010623          	sb	zero,76(sp)
800002f0:	4d1020ef          	jal	ra,80002fc0 <ioe_write>
800002f4:	00100793          	li	a5,1
800002f8:	00b00513          	li	a0,11
800002fc:	03810593          	addi	a1,sp,56
80000300:	04f10623          	sb	a5,76(sp)
80000304:	02012c23          	sw	zero,56(sp)
80000308:	02012e23          	sw	zero,60(sp)
8000030c:	04012023          	sw	zero,64(sp)
80000310:	04012223          	sw	zero,68(sp)
80000314:	04012423          	sw	zero,72(sp)
80000318:	4a9020ef          	jal	ra,80002fc0 <ioe_write>
8000031c:	03810593          	addi	a1,sp,56
80000320:	00600513          	li	a0,6
80000324:	481020ef          	jal	ra,80002fa4 <ioe_read>
80000328:	03812783          	lw	a5,56(sp)
8000032c:	00002737          	lui	a4,0x2
80000330:	71070713          	addi	a4,a4,1808 # 2710 <_entry_offset+0x2710>
80000334:	00e78bb3          	add	s7,a5,a4
80000338:	03c12703          	lw	a4,60(sp)
8000033c:	00fbb7b3          	sltu	a5,s7,a5
80000340:	00e78a33          	add	s4,a5,a4
80000344:	03810593          	addi	a1,sp,56
80000348:	00600513          	li	a0,6
8000034c:	459020ef          	jal	ra,80002fa4 <ioe_read>
80000350:	03c12783          	lw	a5,60(sp)
80000354:	03812703          	lw	a4,56(sp)
80000358:	ff47e6e3          	bltu	a5,s4,80000344 <ant+0x334>
8000035c:	e2fa18e3          	bne	s4,a5,8000018c <ant+0x17c>
80000360:	ff7762e3          	bltu	a4,s7,80000344 <ant+0x334>
80000364:	e29ff06f          	j	8000018c <ant+0x17c>
80000368:	00100713          	li	a4,1
8000036c:	00e78023          	sb	a4,0(a5)
80000370:	01412783          	lw	a5,20(sp)
80000374:	06f00713          	li	a4,111
80000378:	40f007b3          	neg	a5,a5
8000037c:	16e68c63          	beq	a3,a4,800004f4 <ant+0x4e4>
80000380:	01812703          	lw	a4,24(sp)
80000384:	06f00693          	li	a3,111
80000388:	00f12c23          	sw	a5,24(sp)
8000038c:	00e12a23          	sw	a4,20(sp)
80000390:	02c12703          	lw	a4,44(sp)
80000394:	e49ff06f          	j	800001dc <ant+0x1cc>
80000398:	000aaa03          	lw	s4,0(s5)
8000039c:	fffb8b93          	addi	s7,s7,-1
800003a0:	038b8bb3          	mul	s7,s7,s8
800003a4:	01012783          	lw	a5,16(sp)
800003a8:	018a05b3          	add	a1,s4,s8
800003ac:	000a0513          	mv	a0,s4
800003b0:	02f12423          	sw	a5,40(sp)
800003b4:	fff78793          	addi	a5,a5,-1
800003b8:	00f12823          	sw	a5,16(sp)
800003bc:	00178793          	addi	a5,a5,1
800003c0:	02f12023          	sw	a5,32(sp)
800003c4:	000b8613          	mv	a2,s7
800003c8:	5d9020ef          	jal	ra,800031a0 <memmove>
800003cc:	000c0613          	mv	a2,s8
800003d0:	00000593          	li	a1,0
800003d4:	017a0533          	add	a0,s4,s7
800003d8:	5a9020ef          	jal	ra,80003180 <memset>
800003dc:	00000c93          	li	s9,0
800003e0:	14000c13          	li	s8,320
800003e4:	00100b93          	li	s7,1
800003e8:	0c800a13          	li	s4,200
800003ec:	03912e23          	sw	s9,60(sp)
800003f0:	03810593          	addi	a1,sp,56
800003f4:	001c8c93          	addi	s9,s9,1
800003f8:	00b00513          	li	a0,11
800003fc:	02012c23          	sw	zero,56(sp)
80000400:	04912023          	sw	s1,64(sp)
80000404:	05812223          	sw	s8,68(sp)
80000408:	05712423          	sw	s7,72(sp)
8000040c:	04010623          	sb	zero,76(sp)
80000410:	3b1020ef          	jal	ra,80002fc0 <ioe_write>
80000414:	fd4c9ce3          	bne	s9,s4,800003ec <ant+0x3dc>
80000418:	00008797          	auipc	a5,0x8
8000041c:	2c478793          	addi	a5,a5,708 # 800086dc <h>
80000420:	0007a783          	lw	a5,0(a5)
80000424:	00000d93          	li	s11,0
80000428:	00000c93          	li	s9,0
8000042c:	02300c13          	li	s8,35
80000430:	e6f052e3          	blez	a5,80000294 <ant+0x284>
80000434:	0009a703          	lw	a4,0(s3)
80000438:	002c9a13          	slli	s4,s9,0x2
8000043c:	00000b93          	li	s7,0
80000440:	00400d13          	li	s10,4
80000444:	06e05c63          	blez	a4,800004bc <ant+0x4ac>
80000448:	000aa703          	lw	a4,0(s5)
8000044c:	00044583          	lbu	a1,0(s0)
80000450:	01b70733          	add	a4,a4,s11
80000454:	00074703          	lbu	a4,0(a4)
80000458:	06071e63          	bnez	a4,800004d4 <ant+0x4c4>
8000045c:	02000793          	li	a5,32
80000460:	02000713          	li	a4,32
80000464:	00000513          	li	a0,0
80000468:	00f58e63          	beq	a1,a5,80000484 <ant+0x474>
8000046c:	00e40023          	sb	a4,0(s0)
80000470:	00008717          	auipc	a4,0x8
80000474:	4a470713          	addi	a4,a4,1188 # 80008914 <buf.0>
80000478:	00a72023          	sw	a0,0(a4)
8000047c:	00470713          	addi	a4,a4,4
80000480:	fee91ce3          	bne	s2,a4,80000478 <ant+0x468>
80000484:	002b9713          	slli	a4,s7,0x2
80000488:	03810593          	addi	a1,sp,56
8000048c:	00b00513          	li	a0,11
80000490:	02e12c23          	sw	a4,56(sp)
80000494:	03412e23          	sw	s4,60(sp)
80000498:	05612023          	sw	s6,64(sp)
8000049c:	05a12223          	sw	s10,68(sp)
800004a0:	05a12423          	sw	s10,72(sp)
800004a4:	04010623          	sb	zero,76(sp)
800004a8:	319020ef          	jal	ra,80002fc0 <ioe_write>
800004ac:	0009a703          	lw	a4,0(s3)
800004b0:	001b8b93          	addi	s7,s7,1
800004b4:	001d8d93          	addi	s11,s11,1
800004b8:	f8ebc8e3          	blt	s7,a4,80000448 <ant+0x438>
800004bc:	00008797          	auipc	a5,0x8
800004c0:	22078793          	addi	a5,a5,544 # 800086dc <h>
800004c4:	0007a783          	lw	a5,0(a5)
800004c8:	001c8c93          	addi	s9,s9,1
800004cc:	f6fcc4e3          	blt	s9,a5,80000434 <ant+0x424>
800004d0:	dc5ff06f          	j	80000294 <ant+0x284>
800004d4:	fb8588e3          	beq	a1,s8,80000484 <ant+0x474>
800004d8:	00412503          	lw	a0,4(sp)
800004dc:	02300713          	li	a4,35
800004e0:	f8dff06f          	j	8000046c <ant+0x45c>
800004e4:	01412703          	lw	a4,20(sp)
800004e8:	00f12a23          	sw	a5,20(sp)
800004ec:	00e12c23          	sw	a4,24(sp)
800004f0:	d05ff06f          	j	800001f4 <ant+0x1e4>
800004f4:	01812703          	lw	a4,24(sp)
800004f8:	00f12c23          	sw	a5,24(sp)
800004fc:	00e12a23          	sw	a4,20(sp)
80000500:	cf5ff06f          	j	800001f4 <ant+0x1e4>
80000504:	000aaa03          	lw	s4,0(s5)
80000508:	fffb8613          	addi	a2,s7,-1
8000050c:	03860633          	mul	a2,a2,s8
80000510:	01012783          	lw	a5,16(sp)
80000514:	000a0593          	mv	a1,s4
80000518:	018a0533          	add	a0,s4,s8
8000051c:	00278713          	addi	a4,a5,2
80000520:	00178793          	addi	a5,a5,1
80000524:	00f12823          	sw	a5,16(sp)
80000528:	00178793          	addi	a5,a5,1
8000052c:	02e12423          	sw	a4,40(sp)
80000530:	02f12023          	sw	a5,32(sp)
80000534:	46d020ef          	jal	ra,800031a0 <memmove>
80000538:	000c0613          	mv	a2,s8
8000053c:	00000593          	li	a1,0
80000540:	000a0513          	mv	a0,s4
80000544:	43d020ef          	jal	ra,80003180 <memset>
80000548:	e95ff06f          	j	800003dc <ant+0x3cc>
8000054c:	037c0cb3          	mul	s9,s8,s7
80000550:	000aaa03          	lw	s4,0(s5)
80000554:	001a0593          	addi	a1,s4,1
80000558:	000a0513          	mv	a0,s4
8000055c:	fffc8613          	addi	a2,s9,-1
80000560:	441020ef          	jal	ra,800031a0 <memmove>
80000564:	fffc0793          	addi	a5,s8,-1
80000568:	0197da63          	bge	a5,s9,8000057c <ant+0x56c>
8000056c:	00fa0733          	add	a4,s4,a5
80000570:	00070023          	sb	zero,0(a4)
80000574:	018787b3          	add	a5,a5,s8
80000578:	ff97cae3          	blt	a5,s9,8000056c <ant+0x55c>
8000057c:	00c12783          	lw	a5,12(sp)
80000580:	01012703          	lw	a4,16(sp)
80000584:	fff78793          	addi	a5,a5,-1
80000588:	09775e63          	bge	a4,s7,80000624 <ant+0x614>
8000058c:	01012703          	lw	a4,16(sp)
80000590:	0a074663          	bltz	a4,8000063c <ant+0x62c>
80000594:	00c12683          	lw	a3,12(sp)
80000598:	00170713          	addi	a4,a4,1
8000059c:	00f12623          	sw	a5,12(sp)
800005a0:	00178793          	addi	a5,a5,1
800005a4:	02e12023          	sw	a4,32(sp)
800005a8:	02d12223          	sw	a3,36(sp)
800005ac:	02e12423          	sw	a4,40(sp)
800005b0:	00f12e23          	sw	a5,28(sp)
800005b4:	e29ff06f          	j	800003dc <ant+0x3cc>
800005b8:	037c0cb3          	mul	s9,s8,s7
800005bc:	000aaa03          	lw	s4,0(s5)
800005c0:	000a0593          	mv	a1,s4
800005c4:	001a0513          	addi	a0,s4,1
800005c8:	fffc8613          	addi	a2,s9,-1
800005cc:	3d5020ef          	jal	ra,800031a0 <memmove>
800005d0:	00000793          	li	a5,0
800005d4:	01905a63          	blez	s9,800005e8 <ant+0x5d8>
800005d8:	00fa0733          	add	a4,s4,a5
800005dc:	00070023          	sb	zero,0(a4)
800005e0:	018787b3          	add	a5,a5,s8
800005e4:	ff97cae3          	blt	a5,s9,800005d8 <ant+0x5c8>
800005e8:	00c12703          	lw	a4,12(sp)
800005ec:	00170793          	addi	a5,a4,1
800005f0:	00270713          	addi	a4,a4,2
800005f4:	02e12223          	sw	a4,36(sp)
800005f8:	01012703          	lw	a4,16(sp)
800005fc:	03775863          	bge	a4,s7,8000062c <ant+0x61c>
80000600:	01012703          	lw	a4,16(sp)
80000604:	04074863          	bltz	a4,80000654 <ant+0x644>
80000608:	00170713          	addi	a4,a4,1
8000060c:	00f12623          	sw	a5,12(sp)
80000610:	00178793          	addi	a5,a5,1
80000614:	02e12023          	sw	a4,32(sp)
80000618:	02e12423          	sw	a4,40(sp)
8000061c:	00f12e23          	sw	a5,28(sp)
80000620:	dbdff06f          	j	800003dc <ant+0x3cc>
80000624:	00c12703          	lw	a4,12(sp)
80000628:	02e12223          	sw	a4,36(sp)
8000062c:	00f12623          	sw	a5,12(sp)
80000630:	00178793          	addi	a5,a5,1
80000634:	00f12e23          	sw	a5,28(sp)
80000638:	d65ff06f          	j	8000039c <ant+0x38c>
8000063c:	00c12703          	lw	a4,12(sp)
80000640:	00f12623          	sw	a5,12(sp)
80000644:	00178793          	addi	a5,a5,1
80000648:	02e12223          	sw	a4,36(sp)
8000064c:	00f12e23          	sw	a5,28(sp)
80000650:	eb9ff06f          	j	80000508 <ant+0x4f8>
80000654:	00f12623          	sw	a5,12(sp)
80000658:	00178793          	addi	a5,a5,1
8000065c:	00f12e23          	sw	a5,28(sp)
80000660:	ea9ff06f          	j	80000508 <ant+0x4f8>

80000664 <text>:
80000664:	f9010113          	addi	sp,sp,-112
80000668:	00459593          	slli	a1,a1,0x4
8000066c:	07212023          	sw	s2,96(sp)
80000670:	00858593          	addi	a1,a1,8
80000674:	00800793          	li	a5,8
80000678:	06112623          	sw	ra,108(sp)
8000067c:	06812423          	sw	s0,104(sp)
80000680:	06912223          	sw	s1,100(sp)
80000684:	05312e23          	sw	s3,92(sp)
80000688:	05412c23          	sw	s4,88(sp)
8000068c:	05512a23          	sw	s5,84(sp)
80000690:	05612823          	sw	s6,80(sp)
80000694:	05712623          	sw	s7,76(sp)
80000698:	05812423          	sw	s8,72(sp)
8000069c:	05912223          	sw	s9,68(sp)
800006a0:	05a12023          	sw	s10,64(sp)
800006a4:	03b12e23          	sw	s11,60(sp)
800006a8:	00d12423          	sw	a3,8(sp)
800006ac:	40a787b3          	sub	a5,a5,a0
800006b0:	40c58933          	sub	s2,a1,a2
800006b4:	12060e63          	beqz	a2,800007f0 <text+0x18c>
800006b8:	00100d93          	li	s11,1
800006bc:	00279a93          	slli	s5,a5,0x2
800006c0:	00010c37          	lui	s8,0x10
800006c4:	40dd87b3          	sub	a5,s11,a3
800006c8:	00c12223          	sw	a2,4(sp)
800006cc:	00008497          	auipc	s1,0x8
800006d0:	02848493          	addi	s1,s1,40 # 800086f4 <last_c.2>
800006d4:	00f12623          	sw	a5,12(sp)
800006d8:	00009d97          	auipc	s11,0x9
800006dc:	cbcd8d93          	addi	s11,s11,-836 # 80009394 <t>
800006e0:	fffc0c13          	addi	s8,s8,-1 # ffff <_entry_offset+0xffff>
800006e4:	00812783          	lw	a5,8(sp)
800006e8:	0007c683          	lbu	a3,0(a5)
800006ec:	0e068a63          	beqz	a3,800007e0 <text+0x17c>
800006f0:	00c12783          	lw	a5,12(sp)
800006f4:	00812d03          	lw	s10,8(sp)
800006f8:	00291c93          	slli	s9,s2,0x2
800006fc:	00009a17          	auipc	s4,0x9
80000700:	c58a0a13          	addi	s4,s4,-936 # 80009354 <buf.1>
80000704:	012789b3          	add	s3,a5,s2
80000708:	02000b13          	li	s6,32
8000070c:	01900b93          	li	s7,25
80000710:	00500413          	li	s0,5
80000714:	0004c783          	lbu	a5,0(s1)
80000718:	013d0933          	add	s2,s10,s3
8000071c:	08d78663          	beq	a5,a3,800007a8 <text+0x144>
80000720:	00d48023          	sb	a3,0(s1)
80000724:	00000713          	li	a4,0
80000728:	07668663          	beq	a3,s6,80000794 <text+0x130>
8000072c:	0376d7b3          	divu	a5,a3,s7
80000730:	00379713          	slli	a4,a5,0x3
80000734:	40f70733          	sub	a4,a4,a5
80000738:	00571593          	slli	a1,a4,0x5
8000073c:	00b70733          	add	a4,a4,a1
80000740:	00e686b3          	add	a3,a3,a4
80000744:	0ff6f693          	zext.b	a3,a3
80000748:	0286d5b3          	divu	a1,a3,s0
8000074c:	00879713          	slli	a4,a5,0x8
80000750:	00259793          	slli	a5,a1,0x2
80000754:	00f587b3          	add	a5,a1,a5
80000758:	40f687b3          	sub	a5,a3,a5
8000075c:	00859593          	slli	a1,a1,0x8
80000760:	0285c6b3          	div	a3,a1,s0
80000764:	0ff7f793          	zext.b	a5,a5
80000768:	00879793          	slli	a5,a5,0x8
8000076c:	00ff05b7          	lui	a1,0xff0
80000770:	02874733          	div	a4,a4,s0
80000774:	00869693          	slli	a3,a3,0x8
80000778:	0186f6b3          	and	a3,a3,s8
8000077c:	0287c7b3          	div	a5,a5,s0
80000780:	01071713          	slli	a4,a4,0x10
80000784:	00b77733          	and	a4,a4,a1
80000788:	00d76733          	or	a4,a4,a3
8000078c:	0ff7f793          	zext.b	a5,a5
80000790:	00f76733          	or	a4,a4,a5
80000794:	00009797          	auipc	a5,0x9
80000798:	bc078793          	addi	a5,a5,-1088 # 80009354 <buf.1>
8000079c:	00e7a023          	sw	a4,0(a5)
800007a0:	00478793          	addi	a5,a5,4
800007a4:	ffb79ce3          	bne	a5,s11,8000079c <text+0x138>
800007a8:	00400793          	li	a5,4
800007ac:	01810593          	addi	a1,sp,24
800007b0:	00b00513          	li	a0,11
800007b4:	01912c23          	sw	s9,24(sp)
800007b8:	001d0d13          	addi	s10,s10,1
800007bc:	01512e23          	sw	s5,28(sp)
800007c0:	03412023          	sw	s4,32(sp)
800007c4:	02f12223          	sw	a5,36(sp)
800007c8:	02f12423          	sw	a5,40(sp)
800007cc:	02010623          	sb	zero,44(sp)
800007d0:	7f0020ef          	jal	ra,80002fc0 <ioe_write>
800007d4:	000d4683          	lbu	a3,0(s10)
800007d8:	004c8c93          	addi	s9,s9,4
800007dc:	f2069ce3          	bnez	a3,80000714 <text+0xb0>
800007e0:	00412783          	lw	a5,4(sp)
800007e4:	fff78793          	addi	a5,a5,-1
800007e8:	00f12223          	sw	a5,4(sp)
800007ec:	ee079ce3          	bnez	a5,800006e4 <text+0x80>
800007f0:	06c12083          	lw	ra,108(sp)
800007f4:	06812403          	lw	s0,104(sp)
800007f8:	06412483          	lw	s1,100(sp)
800007fc:	06012903          	lw	s2,96(sp)
80000800:	05c12983          	lw	s3,92(sp)
80000804:	05812a03          	lw	s4,88(sp)
80000808:	05412a83          	lw	s5,84(sp)
8000080c:	05012b03          	lw	s6,80(sp)
80000810:	04c12b83          	lw	s7,76(sp)
80000814:	04812c03          	lw	s8,72(sp)
80000818:	04412c83          	lw	s9,68(sp)
8000081c:	04012d03          	lw	s10,64(sp)
80000820:	03c12d83          	lw	s11,60(sp)
80000824:	07010113          	addi	sp,sp,112
80000828:	00008067          	ret

8000082c <add_disk>:
8000082c:	00251693          	slli	a3,a0,0x2
80000830:	00009717          	auipc	a4,0x9
80000834:	b6470713          	addi	a4,a4,-1180 # 80009394 <t>
80000838:	00d70733          	add	a4,a4,a3
8000083c:	00072703          	lw	a4,0(a4)
80000840:	00058613          	mv	a2,a1
80000844:	00050793          	mv	a5,a0
80000848:	00472583          	lw	a1,4(a4)
8000084c:	00072503          	lw	a0,0(a4)
80000850:	fd010113          	addi	sp,sp,-48
80000854:	02112623          	sw	ra,44(sp)
80000858:	00158813          	addi	a6,a1,1 # ff0001 <_entry_offset+0xff0001>
8000085c:	02812423          	sw	s0,40(sp)
80000860:	02912223          	sw	s1,36(sp)
80000864:	00259593          	slli	a1,a1,0x2
80000868:	01072223          	sw	a6,4(a4)
8000086c:	00b505b3          	add	a1,a0,a1
80000870:	00c5a023          	sw	a2,0(a1)
80000874:	00472503          	lw	a0,4(a4)
80000878:	00003697          	auipc	a3,0x3
8000087c:	10c68693          	addi	a3,a3,268 # 80003984 <_etext>
80000880:	00078593          	mv	a1,a5
80000884:	de1ff0ef          	jal	ra,80000664 <text>
80000888:	00100793          	li	a5,1
8000088c:	00b00513          	li	a0,11
80000890:	00810593          	addi	a1,sp,8
80000894:	00f10e23          	sb	a5,28(sp)
80000898:	00012423          	sw	zero,8(sp)
8000089c:	00012623          	sw	zero,12(sp)
800008a0:	00012823          	sw	zero,16(sp)
800008a4:	00012a23          	sw	zero,20(sp)
800008a8:	00012c23          	sw	zero,24(sp)
800008ac:	714020ef          	jal	ra,80002fc0 <ioe_write>
800008b0:	00810593          	addi	a1,sp,8
800008b4:	00600513          	li	a0,6
800008b8:	6ec020ef          	jal	ra,80002fa4 <ioe_read>
800008bc:	00812403          	lw	s0,8(sp)
800008c0:	000184b7          	lui	s1,0x18
800008c4:	00c12783          	lw	a5,12(sp)
800008c8:	6a048493          	addi	s1,s1,1696 # 186a0 <_entry_offset+0x186a0>
800008cc:	009404b3          	add	s1,s0,s1
800008d0:	0084b433          	sltu	s0,s1,s0
800008d4:	00f40433          	add	s0,s0,a5
800008d8:	00810593          	addi	a1,sp,8
800008dc:	00600513          	li	a0,6
800008e0:	6c4020ef          	jal	ra,80002fa4 <ioe_read>
800008e4:	00c12783          	lw	a5,12(sp)
800008e8:	00812703          	lw	a4,8(sp)
800008ec:	fe87e6e3          	bltu	a5,s0,800008d8 <add_disk+0xac>
800008f0:	00f41463          	bne	s0,a5,800008f8 <add_disk+0xcc>
800008f4:	fe9762e3          	bltu	a4,s1,800008d8 <add_disk+0xac>
800008f8:	02c12083          	lw	ra,44(sp)
800008fc:	02812403          	lw	s0,40(sp)
80000900:	02412483          	lw	s1,36(sp)
80000904:	03010113          	addi	sp,sp,48
80000908:	00008067          	ret

8000090c <move>:
8000090c:	0e050063          	beqz	a0,800009ec <move+0xe0>
80000910:	fe010113          	addi	sp,sp,-32
80000914:	00812c23          	sw	s0,24(sp)
80000918:	00912a23          	sw	s1,20(sp)
8000091c:	01212823          	sw	s2,16(sp)
80000920:	01412423          	sw	s4,8(sp)
80000924:	01512223          	sw	s5,4(sp)
80000928:	01612023          	sw	s6,0(sp)
8000092c:	00112e23          	sw	ra,28(sp)
80000930:	01312623          	sw	s3,12(sp)
80000934:	00050493          	mv	s1,a0
80000938:	00058413          	mv	s0,a1
8000093c:	00060a13          	mv	s4,a2
80000940:	00068913          	mv	s2,a3
80000944:	00009b17          	auipc	s6,0x9
80000948:	a50b0b13          	addi	s6,s6,-1456 # 80009394 <t>
8000094c:	00003a97          	auipc	s5,0x3
80000950:	03ca8a93          	addi	s5,s5,60 # 80003988 <_etext+0x4>
80000954:	fff48493          	addi	s1,s1,-1
80000958:	00090613          	mv	a2,s2
8000095c:	000a0693          	mv	a3,s4
80000960:	00040593          	mv	a1,s0
80000964:	00048513          	mv	a0,s1
80000968:	fa5ff0ef          	jal	ra,8000090c <move>
8000096c:	00241793          	slli	a5,s0,0x2
80000970:	00fb07b3          	add	a5,s6,a5
80000974:	0007a703          	lw	a4,0(a5)
80000978:	000a8693          	mv	a3,s5
8000097c:	00040593          	mv	a1,s0
80000980:	00472503          	lw	a0,4(a4)
80000984:	00072783          	lw	a5,0(a4)
80000988:	fff50613          	addi	a2,a0,-1
8000098c:	00261813          	slli	a6,a2,0x2
80000990:	00c72223          	sw	a2,4(a4)
80000994:	010787b3          	add	a5,a5,a6
80000998:	0007a983          	lw	s3,0(a5)
8000099c:	00098613          	mv	a2,s3
800009a0:	cc5ff0ef          	jal	ra,80000664 <text>
800009a4:	00098593          	mv	a1,s3
800009a8:	000a0513          	mv	a0,s4
800009ac:	e81ff0ef          	jal	ra,8000082c <add_disk>
800009b0:	00090793          	mv	a5,s2
800009b4:	00040913          	mv	s2,s0
800009b8:	00048663          	beqz	s1,800009c4 <move+0xb8>
800009bc:	00078413          	mv	s0,a5
800009c0:	f95ff06f          	j	80000954 <move+0x48>
800009c4:	01c12083          	lw	ra,28(sp)
800009c8:	01812403          	lw	s0,24(sp)
800009cc:	01412483          	lw	s1,20(sp)
800009d0:	01012903          	lw	s2,16(sp)
800009d4:	00c12983          	lw	s3,12(sp)
800009d8:	00812a03          	lw	s4,8(sp)
800009dc:	00412a83          	lw	s5,4(sp)
800009e0:	00012b03          	lw	s6,0(sp)
800009e4:	02010113          	addi	sp,sp,32
800009e8:	00008067          	ret
800009ec:	00008067          	ret

800009f0 <hanoi>:
800009f0:	fc010113          	addi	sp,sp,-64
800009f4:	02812c23          	sw	s0,56(sp)
800009f8:	02912a23          	sw	s1,52(sp)
800009fc:	03212823          	sw	s2,48(sp)
80000a00:	03312623          	sw	s3,44(sp)
80000a04:	03412423          	sw	s4,40(sp)
80000a08:	02112e23          	sw	ra,60(sp)
80000a0c:	03512223          	sw	s5,36(sp)
80000a10:	00000413          	li	s0,0
80000a14:	00008a17          	auipc	s4,0x8
80000a18:	440a0a13          	addi	s4,s4,1088 # 80008e54 <buf.0>
80000a1c:	14000993          	li	s3,320
80000a20:	00100913          	li	s2,1
80000a24:	0c800493          	li	s1,200
80000a28:	00812623          	sw	s0,12(sp)
80000a2c:	00810593          	addi	a1,sp,8
80000a30:	00140413          	addi	s0,s0,1
80000a34:	00b00513          	li	a0,11
80000a38:	00012423          	sw	zero,8(sp)
80000a3c:	01412823          	sw	s4,16(sp)
80000a40:	01312a23          	sw	s3,20(sp)
80000a44:	01212c23          	sw	s2,24(sp)
80000a48:	00010e23          	sb	zero,28(sp)
80000a4c:	574020ef          	jal	ra,80002fc0 <ioe_write>
80000a50:	fc941ce3          	bne	s0,s1,80000a28 <hanoi+0x38>
80000a54:	00009997          	auipc	s3,0x9
80000a58:	94098993          	addi	s3,s3,-1728 # 80009394 <t>
80000a5c:	00098493          	mv	s1,s3
80000a60:	00009917          	auipc	s2,0x9
80000a64:	94090913          	addi	s2,s2,-1728 # 800093a0 <b>
80000a68:	02400513          	li	a0,36
80000a6c:	7c0020ef          	jal	ra,8000322c <malloc>
80000a70:	02400613          	li	a2,36
80000a74:	00000593          	li	a1,0
80000a78:	00050413          	mv	s0,a0
80000a7c:	704020ef          	jal	ra,80003180 <memset>
80000a80:	00840793          	addi	a5,s0,8
80000a84:	0084a023          	sw	s0,0(s1)
80000a88:	00f42023          	sw	a5,0(s0)
80000a8c:	00448493          	addi	s1,s1,4
80000a90:	fc991ce3          	bne	s2,s1,80000a68 <hanoi+0x78>
80000a94:	00700413          	li	s0,7
80000a98:	00040593          	mv	a1,s0
80000a9c:	00000513          	li	a0,0
80000aa0:	fff40413          	addi	s0,s0,-1
80000aa4:	d89ff0ef          	jal	ra,8000082c <add_disk>
80000aa8:	fe0418e3          	bnez	s0,80000a98 <hanoi+0xa8>
80000aac:	00100913          	li	s2,1
80000ab0:	00700493          	li	s1,7
80000ab4:	00003a97          	auipc	s5,0x3
80000ab8:	ed4a8a93          	addi	s5,s5,-300 # 80003988 <_etext+0x4>
80000abc:	fff48493          	addi	s1,s1,-1
80000ac0:	00090613          	mv	a2,s2
80000ac4:	00040593          	mv	a1,s0
80000ac8:	00200693          	li	a3,2
80000acc:	00048513          	mv	a0,s1
80000ad0:	e3dff0ef          	jal	ra,8000090c <move>
80000ad4:	00241793          	slli	a5,s0,0x2
80000ad8:	00f987b3          	add	a5,s3,a5
80000adc:	0007a703          	lw	a4,0(a5)
80000ae0:	000a8693          	mv	a3,s5
80000ae4:	00040593          	mv	a1,s0
80000ae8:	00472503          	lw	a0,4(a4)
80000aec:	00072783          	lw	a5,0(a4)
80000af0:	fff50613          	addi	a2,a0,-1
80000af4:	00261813          	slli	a6,a2,0x2
80000af8:	00c72223          	sw	a2,4(a4)
80000afc:	010787b3          	add	a5,a5,a6
80000b00:	0007aa03          	lw	s4,0(a5)
80000b04:	000a0613          	mv	a2,s4
80000b08:	b5dff0ef          	jal	ra,80000664 <text>
80000b0c:	000a0593          	mv	a1,s4
80000b10:	00200513          	li	a0,2
80000b14:	d19ff0ef          	jal	ra,8000082c <add_disk>
80000b18:	00090793          	mv	a5,s2
80000b1c:	00040913          	mv	s2,s0
80000b20:	00048663          	beqz	s1,80000b2c <hanoi+0x13c>
80000b24:	00078413          	mv	s0,a5
80000b28:	f95ff06f          	j	80000abc <hanoi+0xcc>
80000b2c:	03c12083          	lw	ra,60(sp)
80000b30:	03812403          	lw	s0,56(sp)
80000b34:	03412483          	lw	s1,52(sp)
80000b38:	03012903          	lw	s2,48(sp)
80000b3c:	02c12983          	lw	s3,44(sp)
80000b40:	02812a03          	lw	s4,40(sp)
80000b44:	02412a83          	lw	s5,36(sp)
80000b48:	04010113          	addi	sp,sp,64
80000b4c:	00008067          	ret

80000b50 <donut>:
80000b50:	000017b7          	lui	a5,0x1
80000b54:	f8010113          	addi	sp,sp,-128
80000b58:	80078793          	addi	a5,a5,-2048 # 800 <_entry_offset+0x800>
80000b5c:	00f12c23          	sw	a5,24(sp)
80000b60:	000107b7          	lui	a5,0x10
80000b64:	fff78793          	addi	a5,a5,-1 # ffff <_entry_offset+0xffff>
80000b68:	06812c23          	sw	s0,120(sp)
80000b6c:	06912a23          	sw	s1,116(sp)
80000b70:	07612023          	sw	s6,96(sp)
80000b74:	05712e23          	sw	s7,92(sp)
80000b78:	05812c23          	sw	s8,88(sp)
80000b7c:	05912a23          	sw	s9,84(sp)
80000b80:	05a12823          	sw	s10,80(sp)
80000b84:	06112e23          	sw	ra,124(sp)
80000b88:	07212823          	sw	s2,112(sp)
80000b8c:	07312623          	sw	s3,108(sp)
80000b90:	07412423          	sw	s4,104(sp)
80000b94:	07512223          	sw	s5,100(sp)
80000b98:	05b12623          	sw	s11,76(sp)
80000b9c:	00000413          	li	s0,0
80000ba0:	40000493          	li	s1,1024
80000ba4:	00000b13          	li	s6,0
80000ba8:	40000b93          	li	s7,1024
80000bac:	00009c17          	auipc	s8,0x9
80000bb0:	414c0c13          	addi	s8,s8,1044 # 80009fc0 <z>
80000bb4:	00008c97          	auipc	s9,0x8
80000bb8:	7ecc8c93          	addi	s9,s9,2028 # 800093a0 <b>
80000bbc:	04e00d13          	li	s10,78
80000bc0:	00f12e23          	sw	a5,28(sp)
80000bc4:	00000913          	li	s2,0
80000bc8:	00100a13          	li	s4,1
80000bcc:	0c800993          	li	s3,200
80000bd0:	00009797          	auipc	a5,0x9
80000bd4:	ef078793          	addi	a5,a5,-272 # 80009ac0 <buf.2>
80000bd8:	03212623          	sw	s2,44(sp)
80000bdc:	02f12823          	sw	a5,48(sp)
80000be0:	00190913          	addi	s2,s2,1
80000be4:	14000793          	li	a5,320
80000be8:	02810593          	addi	a1,sp,40
80000bec:	00b00513          	li	a0,11
80000bf0:	02012423          	sw	zero,40(sp)
80000bf4:	02f12a23          	sw	a5,52(sp)
80000bf8:	03412c23          	sw	s4,56(sp)
80000bfc:	02010e23          	sb	zero,60(sp)
80000c00:	3c0020ef          	jal	ra,80002fc0 <ioe_write>
80000c04:	fd3916e3          	bne	s2,s3,80000bd0 <donut+0x80>
80000c08:	6e000613          	li	a2,1760
80000c0c:	02000593          	li	a1,32
80000c10:	00008517          	auipc	a0,0x8
80000c14:	79050513          	addi	a0,a0,1936 # 800093a0 <b>
80000c18:	568020ef          	jal	ra,80003180 <memset>
80000c1c:	6e000613          	li	a2,1760
80000c20:	07f00593          	li	a1,127
80000c24:	00009517          	auipc	a0,0x9
80000c28:	39c50513          	addi	a0,a0,924 # 80009fc0 <z>
80000c2c:	554020ef          	jal	ra,80003180 <memset>
80000c30:	417007b3          	neg	a5,s7
80000c34:	00f12423          	sw	a5,8(sp)
80000c38:	05a00793          	li	a5,90
80000c3c:	00f12a23          	sw	a5,20(sp)
80000c40:	40000793          	li	a5,1024
80000c44:	41600ab3          	neg	s5,s6
80000c48:	00f12623          	sw	a5,12(sp)
80000c4c:	00012823          	sw	zero,16(sp)
80000c50:	01400093          	li	ra,20
80000c54:	ffb00937          	lui	s2,0xffb00
80000c58:	003003b7          	lui	t2,0x300
80000c5c:	01012703          	lw	a4,16(sp)
80000c60:	00c12603          	lw	a2,12(sp)
80000c64:	01812783          	lw	a5,24(sp)
80000c68:	02eb89b3          	mul	s3,s7,a4
80000c6c:	14400e93          	li	t4,324
80000c70:	00f60f33          	add	t5,a2,a5
80000c74:	40000693          	li	a3,1024
80000c78:	00000793          	li	a5,0
80000c7c:	02eb0fb3          	mul	t6,s6,a4
80000c80:	c009f293          	andi	t0,s3,-1024
80000c84:	00500737          	lui	a4,0x500
80000c88:	40a9d993          	srai	s3,s3,0xa
80000c8c:	00e282b3          	add	t0,t0,a4
80000c90:	02c48a33          	mul	s4,s1,a2
80000c94:	40afdf93          	srai	t6,t6,0xa
80000c98:	40aa5a13          	srai	s4,s4,0xa
80000c9c:	03e78e33          	mul	t3,a5,t5
80000ca0:	00279613          	slli	a2,a5,0x2
80000ca4:	00f60633          	add	a2,a2,a5
80000ca8:	00269713          	slli	a4,a3,0x2
80000cac:	00d70733          	add	a4,a4,a3
80000cb0:	40865613          	srai	a2,a2,0x8
80000cb4:	40c68633          	sub	a2,a3,a2
80000cb8:	40875713          	srai	a4,a4,0x8
80000cbc:	00f70733          	add	a4,a4,a5
80000cc0:	fffe8e93          	addi	t4,t4,-1
80000cc4:	40ae5813          	srai	a6,t3,0xa
80000cc8:	030b8533          	mul	a0,s7,a6
80000ccc:	03e68333          	mul	t1,a3,t5
80000cd0:	40a55513          	srai	a0,a0,0xa
80000cd4:	40af8533          	sub	a0,t6,a0
80000cd8:	40a35313          	srai	t1,t1,0xa
80000cdc:	026488b3          	mul	a7,s1,t1
80000ce0:	02a405b3          	mul	a1,s0,a0
80000ce4:	030b0833          	mul	a6,s6,a6
80000ce8:	011585b3          	add	a1,a1,a7
80000cec:	00459893          	slli	a7,a1,0x4
80000cf0:	40b888b3          	sub	a7,a7,a1
80000cf4:	00580833          	add	a6,a6,t0
80000cf8:	0308c8b3          	div	a7,a7,a6
80000cfc:	00b88d93          	addi	s11,a7,11
80000d00:	02c605b3          	mul	a1,a2,a2
80000d04:	0db0e063          	bltu	ra,s11,80000dc4 <donut+0x274>
80000d08:	00c88893          	addi	a7,a7,12
80000d0c:	00289d93          	slli	s11,a7,0x2
80000d10:	011d88b3          	add	a7,s11,a7
80000d14:	01280db3          	add	s11,a6,s2
80000d18:	00489893          	slli	a7,a7,0x4
80000d1c:	40fddd93          	srai	s11,s11,0xf
80000d20:	018d9d93          	slli	s11,s11,0x18
80000d24:	418ddd93          	srai	s11,s11,0x18
80000d28:	02640333          	mul	t1,s0,t1
80000d2c:	02a48533          	mul	a0,s1,a0
80000d30:	40a30533          	sub	a0,t1,a0
80000d34:	00451313          	slli	t1,a0,0x4
80000d38:	40a30333          	sub	t1,t1,a0
80000d3c:	00131313          	slli	t1,t1,0x1
80000d40:	03034333          	div	t1,t1,a6
80000d44:	01930513          	addi	a0,t1,25
80000d48:	00a88533          	add	a0,a7,a0
80000d4c:	01830313          	addi	t1,t1,24
80000d50:	00ac0833          	add	a6,s8,a0
80000d54:	066d6863          	bltu	s10,t1,80000dc4 <donut+0x274>
80000d58:	00b79793          	slli	a5,a5,0xb
80000d5c:	40fe0e33          	sub	t3,t3,a5
80000d60:	00080783          	lb	a5,0(a6)
80000d64:	40ae5e13          	srai	t3,t3,0xa
80000d68:	00ac8533          	add	a0,s9,a0
80000d6c:	04fddc63          	bge	s11,a5,80000dc4 <donut+0x274>
80000d70:	00812783          	lw	a5,8(sp)
80000d74:	02da06b3          	mul	a3,s4,a3
80000d78:	01b80023          	sb	s11,0(a6)
80000d7c:	02fe07b3          	mul	a5,t3,a5
80000d80:	40a7d793          	srai	a5,a5,0xa
80000d84:	01f787b3          	add	a5,a5,t6
80000d88:	035e0e33          	mul	t3,t3,s5
80000d8c:	028787b3          	mul	a5,a5,s0
80000d90:	40fe07b3          	sub	a5,t3,a5
80000d94:	40d787b3          	sub	a5,a5,a3
80000d98:	40a7d793          	srai	a5,a5,0xa
80000d9c:	413787b3          	sub	a5,a5,s3
80000da0:	4077d793          	srai	a5,a5,0x7
80000da4:	fff7c693          	not	a3,a5
80000da8:	41f6d693          	srai	a3,a3,0x1f
80000dac:	00d7f7b3          	and	a5,a5,a3
80000db0:	00003697          	auipc	a3,0x3
80000db4:	bdc68693          	addi	a3,a3,-1060 # 8000398c <_etext+0x8>
80000db8:	00f687b3          	add	a5,a3,a5
80000dbc:	0007c783          	lbu	a5,0(a5)
80000dc0:	00f50023          	sb	a5,0(a0)
80000dc4:	02e707b3          	mul	a5,a4,a4
80000dc8:	40b385b3          	sub	a1,t2,a1
80000dcc:	40f585b3          	sub	a1,a1,a5
80000dd0:	40b5d593          	srai	a1,a1,0xb
80000dd4:	02b60633          	mul	a2,a2,a1
80000dd8:	02b70733          	mul	a4,a4,a1
80000ddc:	40a65693          	srai	a3,a2,0xa
80000de0:	40a75793          	srai	a5,a4,0xa
80000de4:	ea0e9ce3          	bnez	t4,80000c9c <donut+0x14c>
80000de8:	01012683          	lw	a3,16(sp)
80000dec:	00c12603          	lw	a2,12(sp)
80000df0:	00369713          	slli	a4,a3,0x3
80000df4:	00d70733          	add	a4,a4,a3
80000df8:	00361793          	slli	a5,a2,0x3
80000dfc:	40775713          	srai	a4,a4,0x7
80000e00:	40e60733          	sub	a4,a2,a4
80000e04:	00c787b3          	add	a5,a5,a2
80000e08:	01412603          	lw	a2,20(sp)
80000e0c:	4077d793          	srai	a5,a5,0x7
80000e10:	00d787b3          	add	a5,a5,a3
80000e14:	02e706b3          	mul	a3,a4,a4
80000e18:	fff60593          	addi	a1,a2,-1
80000e1c:	00b12a23          	sw	a1,20(sp)
80000e20:	02f78633          	mul	a2,a5,a5
80000e24:	40d386b3          	sub	a3,t2,a3
80000e28:	40c686b3          	sub	a3,a3,a2
80000e2c:	40b6d693          	srai	a3,a3,0xb
80000e30:	02d70733          	mul	a4,a4,a3
80000e34:	02d787b3          	mul	a5,a5,a3
80000e38:	40a75713          	srai	a4,a4,0xa
80000e3c:	00e12623          	sw	a4,12(sp)
80000e40:	40a7d793          	srai	a5,a5,0xa
80000e44:	00f12823          	sw	a5,16(sp)
80000e48:	e0059ae3          	bnez	a1,80000c5c <donut+0x10c>
80000e4c:	00008997          	auipc	s3,0x8
80000e50:	55498993          	addi	s3,s3,1364 # 800093a0 <b>
80000e54:	00000913          	li	s2,0
80000e58:	00000a13          	li	s4,0
80000e5c:	00000d93          	li	s11,0
80000e60:	05000a93          	li	s5,80
80000e64:	03100693          	li	a3,49
80000e68:	02000893          	li	a7,32
80000e6c:	01900813          	li	a6,25
80000e70:	00500613          	li	a2,5
80000e74:	035967b3          	rem	a5,s2,s5
80000e78:	20078c63          	beqz	a5,80001090 <donut+0x540>
80000e7c:	1146dc63          	bge	a3,s4,80000f94 <donut+0x444>
80000e80:	001a0a13          	addi	s4,s4,1
80000e84:	00190913          	addi	s2,s2,1 # ffb00001 <_end+0x7faeb001>
80000e88:	6e100793          	li	a5,1761
80000e8c:	00198993          	addi	s3,s3,1
80000e90:	fef912e3          	bne	s2,a5,80000e74 <donut+0x324>
80000e94:	002b9613          	slli	a2,s7,0x2
80000e98:	00249713          	slli	a4,s1,0x2
80000e9c:	01760633          	add	a2,a2,s7
80000ea0:	00970733          	add	a4,a4,s1
80000ea4:	40765613          	srai	a2,a2,0x7
80000ea8:	40875713          	srai	a4,a4,0x8
80000eac:	40cb0633          	sub	a2,s6,a2
80000eb0:	40e40733          	sub	a4,s0,a4
80000eb4:	02e70333          	mul	t1,a4,a4
80000eb8:	002b1693          	slli	a3,s6,0x2
80000ebc:	00241793          	slli	a5,s0,0x2
80000ec0:	016686b3          	add	a3,a3,s6
80000ec4:	008787b3          	add	a5,a5,s0
80000ec8:	4076d693          	srai	a3,a3,0x7
80000ecc:	4087d793          	srai	a5,a5,0x8
80000ed0:	017686b3          	add	a3,a3,s7
80000ed4:	009787b3          	add	a5,a5,s1
80000ed8:	00300837          	lui	a6,0x300
80000edc:	02c608b3          	mul	a7,a2,a2
80000ee0:	00100e13          	li	t3,1
80000ee4:	03c10e23          	sb	t3,60(sp)
80000ee8:	00b00513          	li	a0,11
80000eec:	02810593          	addi	a1,sp,40
80000ef0:	02012423          	sw	zero,40(sp)
80000ef4:	02012623          	sw	zero,44(sp)
80000ef8:	02012823          	sw	zero,48(sp)
80000efc:	02012a23          	sw	zero,52(sp)
80000f00:	02012c23          	sw	zero,56(sp)
80000f04:	02d68e33          	mul	t3,a3,a3
80000f08:	411808b3          	sub	a7,a6,a7
80000f0c:	40680833          	sub	a6,a6,t1
80000f10:	000189b7          	lui	s3,0x18
80000f14:	6a098993          	addi	s3,s3,1696 # 186a0 <_entry_offset+0x186a0>
80000f18:	02f78333          	mul	t1,a5,a5
80000f1c:	41c888b3          	sub	a7,a7,t3
80000f20:	40b8d893          	srai	a7,a7,0xb
80000f24:	40680833          	sub	a6,a6,t1
80000f28:	40b85813          	srai	a6,a6,0xb
80000f2c:	03070733          	mul	a4,a4,a6
80000f30:	030787b3          	mul	a5,a5,a6
80000f34:	40a75413          	srai	s0,a4,0xa
80000f38:	03160633          	mul	a2,a2,a7
80000f3c:	40a7d493          	srai	s1,a5,0xa
80000f40:	031686b3          	mul	a3,a3,a7
80000f44:	40a65b13          	srai	s6,a2,0xa
80000f48:	40a6db93          	srai	s7,a3,0xa
80000f4c:	074020ef          	jal	ra,80002fc0 <ioe_write>
80000f50:	02810593          	addi	a1,sp,40
80000f54:	00600513          	li	a0,6
80000f58:	04c020ef          	jal	ra,80002fa4 <ioe_read>
80000f5c:	02812783          	lw	a5,40(sp)
80000f60:	02c12703          	lw	a4,44(sp)
80000f64:	013789b3          	add	s3,a5,s3
80000f68:	00f9b7b3          	sltu	a5,s3,a5
80000f6c:	00e78933          	add	s2,a5,a4
80000f70:	02810593          	addi	a1,sp,40
80000f74:	00600513          	li	a0,6
80000f78:	02c020ef          	jal	ra,80002fa4 <ioe_read>
80000f7c:	02c12783          	lw	a5,44(sp)
80000f80:	02812703          	lw	a4,40(sp)
80000f84:	ff27e6e3          	bltu	a5,s2,80000f70 <donut+0x420>
80000f88:	c2f91ee3          	bne	s2,a5,80000bc4 <donut+0x74>
80000f8c:	ff3762e3          	bltu	a4,s3,80000f70 <donut+0x420>
80000f90:	c35ff06f          	j	80000bc4 <donut+0x74>
80000f94:	00007797          	auipc	a5,0x7
80000f98:	75178793          	addi	a5,a5,1873 # 800086e5 <last_c.1>
80000f9c:	0009c583          	lbu	a1,0(s3)
80000fa0:	0007c783          	lbu	a5,0(a5)
80000fa4:	0ab78063          	beq	a5,a1,80001044 <donut+0x4f4>
80000fa8:	00007797          	auipc	a5,0x7
80000fac:	73d78793          	addi	a5,a5,1853 # 800086e5 <last_c.1>
80000fb0:	00b78023          	sb	a1,0(a5)
80000fb4:	00000713          	li	a4,0
80000fb8:	07158863          	beq	a1,a7,80001028 <donut+0x4d8>
80000fbc:	0305d7b3          	divu	a5,a1,a6
80000fc0:	00379713          	slli	a4,a5,0x3
80000fc4:	40f70733          	sub	a4,a4,a5
80000fc8:	00571513          	slli	a0,a4,0x5
80000fcc:	00a70733          	add	a4,a4,a0
80000fd0:	00e585b3          	add	a1,a1,a4
80000fd4:	0ff5f593          	zext.b	a1,a1
80000fd8:	02c5d533          	divu	a0,a1,a2
80000fdc:	00879713          	slli	a4,a5,0x8
80000fe0:	02c74733          	div	a4,a4,a2
80000fe4:	00251793          	slli	a5,a0,0x2
80000fe8:	00f507b3          	add	a5,a0,a5
80000fec:	40f587b3          	sub	a5,a1,a5
80000ff0:	00851513          	slli	a0,a0,0x8
80000ff4:	0ff7f793          	zext.b	a5,a5
80000ff8:	00879793          	slli	a5,a5,0x8
80000ffc:	02c545b3          	div	a1,a0,a2
80001000:	01071713          	slli	a4,a4,0x10
80001004:	00ff0537          	lui	a0,0xff0
80001008:	00a77733          	and	a4,a4,a0
8000100c:	01c12503          	lw	a0,28(sp)
80001010:	02c7c7b3          	div	a5,a5,a2
80001014:	00859593          	slli	a1,a1,0x8
80001018:	00a5f5b3          	and	a1,a1,a0
8000101c:	00b76733          	or	a4,a4,a1
80001020:	0ff7f793          	zext.b	a5,a5
80001024:	00f76733          	or	a4,a4,a5
80001028:	00009797          	auipc	a5,0x9
8000102c:	a5878793          	addi	a5,a5,-1448 # 80009a80 <buf.0>
80001030:	00e7a023          	sw	a4,0(a5)
80001034:	00009597          	auipc	a1,0x9
80001038:	a8c58593          	addi	a1,a1,-1396 # 80009ac0 <buf.2>
8000103c:	00478793          	addi	a5,a5,4
80001040:	fef598e3          	bne	a1,a5,80001030 <donut+0x4e0>
80001044:	002d9713          	slli	a4,s11,0x2
80001048:	00400793          	li	a5,4
8000104c:	002a1313          	slli	t1,s4,0x2
80001050:	02e12623          	sw	a4,44(sp)
80001054:	02810593          	addi	a1,sp,40
80001058:	00009717          	auipc	a4,0x9
8000105c:	a2870713          	addi	a4,a4,-1496 # 80009a80 <buf.0>
80001060:	00b00513          	li	a0,11
80001064:	02612423          	sw	t1,40(sp)
80001068:	02e12823          	sw	a4,48(sp)
8000106c:	02f12a23          	sw	a5,52(sp)
80001070:	02f12c23          	sw	a5,56(sp)
80001074:	02010e23          	sb	zero,60(sp)
80001078:	749010ef          	jal	ra,80002fc0 <ioe_write>
8000107c:	03100693          	li	a3,49
80001080:	02000893          	li	a7,32
80001084:	01900813          	li	a6,25
80001088:	00500613          	li	a2,5
8000108c:	df5ff06f          	j	80000e80 <donut+0x330>
80001090:	001d8d93          	addi	s11,s11,1
80001094:	00100a13          	li	s4,1
80001098:	dedff06f          	j	80000e84 <donut+0x334>

8000109c <galton>:
8000109c:	f9010113          	addi	sp,sp,-112
800010a0:	01810593          	addi	a1,sp,24
800010a4:	00900513          	li	a0,9
800010a8:	06112623          	sw	ra,108(sp)
800010ac:	06812423          	sw	s0,104(sp)
800010b0:	06912223          	sw	s1,100(sp)
800010b4:	07212023          	sw	s2,96(sp)
800010b8:	05312e23          	sw	s3,92(sp)
800010bc:	05412c23          	sw	s4,88(sp)
800010c0:	05512a23          	sw	s5,84(sp)
800010c4:	05612823          	sw	s6,80(sp)
800010c8:	05712623          	sw	s7,76(sp)
800010cc:	05812423          	sw	s8,72(sp)
800010d0:	05912223          	sw	s9,68(sp)
800010d4:	05a12023          	sw	s10,64(sp)
800010d8:	03b12e23          	sw	s11,60(sp)
800010dc:	6c9010ef          	jal	ra,80002fa4 <ioe_read>
800010e0:	02012683          	lw	a3,32(sp)
800010e4:	03200713          	li	a4,50
800010e8:	41f6d793          	srai	a5,a3,0x1f
800010ec:	0037f793          	andi	a5,a5,3
800010f0:	00d787b3          	add	a5,a5,a3
800010f4:	4027d793          	srai	a5,a5,0x2
800010f8:	ffe78793          	addi	a5,a5,-2
800010fc:	58f75c63          	bge	a4,a5,80001694 <galton+0x5f8>
80001100:	0000bd97          	auipc	s11,0xb
80001104:	12cd8d93          	addi	s11,s11,300 # 8000c22c <h>
80001108:	00eda023          	sw	a4,0(s11)
8000110c:	00000413          	li	s0,0
80001110:	00009a17          	auipc	s4,0x9
80001114:	5d0a0a13          	addi	s4,s4,1488 # 8000a6e0 <buf.3>
80001118:	14000993          	li	s3,320
8000111c:	00100913          	li	s2,1
80001120:	0c800493          	li	s1,200
80001124:	00812e23          	sw	s0,28(sp)
80001128:	01810593          	addi	a1,sp,24
8000112c:	00140413          	addi	s0,s0,1
80001130:	00b00513          	li	a0,11
80001134:	00012c23          	sw	zero,24(sp)
80001138:	03412023          	sw	s4,32(sp)
8000113c:	03312223          	sw	s3,36(sp)
80001140:	03212423          	sw	s2,40(sp)
80001144:	02010623          	sb	zero,44(sp)
80001148:	679010ef          	jal	ra,80002fc0 <ioe_write>
8000114c:	fc941ce3          	bne	s0,s1,80001124 <galton+0x88>
80001150:	000da483          	lw	s1,0(s11)
80001154:	00449913          	slli	s2,s1,0x4
80001158:	00990933          	add	s2,s2,s1
8000115c:	00090513          	mv	a0,s2
80001160:	0cc020ef          	jal	ra,8000322c <malloc>
80001164:	0000b797          	auipc	a5,0xb
80001168:	0c078793          	addi	a5,a5,192 # 8000c224 <b>
8000116c:	00090613          	mv	a2,s2
80001170:	02000593          	li	a1,32
80001174:	00a7a023          	sw	a0,0(a5)
80001178:	00050413          	mv	s0,a0
8000117c:	004020ef          	jal	ra,80003180 <memset>
80001180:	00002537          	lui	a0,0x2
80001184:	0a8020ef          	jal	ra,8000322c <malloc>
80001188:	00001737          	lui	a4,0x1
8000118c:	00e50733          	add	a4,a0,a4
80001190:	0000b697          	auipc	a3,0xb
80001194:	0a468693          	addi	a3,a3,164 # 8000c234 <x>
80001198:	0000b797          	auipc	a5,0xb
8000119c:	0a078793          	addi	a5,a5,160 # 8000c238 <y>
800011a0:	00a6a023          	sw	a0,0(a3)
800011a4:	00e7a023          	sw	a4,0(a5)
800011a8:	00000513          	li	a0,0
800011ac:	02240713          	addi	a4,s0,34
800011b0:	00000593          	li	a1,0
800011b4:	02a00613          	li	a2,42
800011b8:	ff800893          	li	a7,-8
800011bc:	ffe57693          	andi	a3,a0,-2
800011c0:	00a70813          	addi	a6,a4,10 # 100a <_entry_offset+0x100a>
800011c4:	00870793          	addi	a5,a4,8
800011c8:	010686b3          	add	a3,a3,a6
800011cc:	00c78023          	sb	a2,0(a5)
800011d0:	00278793          	addi	a5,a5,2
800011d4:	fef69ce3          	bne	a3,a5,800011cc <galton+0x130>
800011d8:	fff58593          	addi	a1,a1,-1
800011dc:	00250513          	addi	a0,a0,2 # 2002 <_entry_offset+0x2002>
800011e0:	02170713          	addi	a4,a4,33
800011e4:	fd159ce3          	bne	a1,a7,800011bc <galton+0x120>
800011e8:	00010c37          	lui	s8,0x10
800011ec:	0033ab37          	lui	s6,0x33a
800011f0:	fffc0c13          	addi	s8,s8,-1 # ffff <_entry_offset+0xffff>
800011f4:	966b0b13          	addi	s6,s6,-1690 # 339966 <_entry_offset+0x339966>
800011f8:	18905663          	blez	s1,80001384 <galton+0x2e8>
800011fc:	00012423          	sw	zero,8(sp)
80001200:	00012223          	sw	zero,4(sp)
80001204:	00007497          	auipc	s1,0x7
80001208:	4f148493          	addi	s1,s1,1265 # 800086f5 <last_c.2>
8000120c:	00009a97          	auipc	s5,0x9
80001210:	494a8a93          	addi	s5,s5,1172 # 8000a6a0 <buf.1>
80001214:	00009417          	auipc	s0,0x9
80001218:	4cc40413          	addi	s0,s0,1228 # 8000a6e0 <buf.3>
8000121c:	00412783          	lw	a5,4(sp)
80001220:	00812c83          	lw	s9,8(sp)
80001224:	00000913          	li	s2,0
80001228:	00279a13          	slli	s4,a5,0x2
8000122c:	02a00b93          	li	s7,42
80001230:	02000993          	li	s3,32
80001234:	00400d13          	li	s10,4
80001238:	0000b797          	auipc	a5,0xb
8000123c:	fec78793          	addi	a5,a5,-20 # 8000c224 <b>
80001240:	0007a783          	lw	a5,0(a5)
80001244:	0004c703          	lbu	a4,0(s1)
80001248:	019787b3          	add	a5,a5,s9
8000124c:	0007c783          	lbu	a5,0(a5)
80001250:	3b778863          	beq	a5,s7,80001600 <galton+0x564>
80001254:	08e78a63          	beq	a5,a4,800012e8 <galton+0x24c>
80001258:	00f48023          	sb	a5,0(s1)
8000125c:	00000713          	li	a4,0
80001260:	07378a63          	beq	a5,s3,800012d4 <galton+0x238>
80001264:	01900713          	li	a4,25
80001268:	02e7d733          	divu	a4,a5,a4
8000126c:	00500593          	li	a1,5
80001270:	00371613          	slli	a2,a4,0x3
80001274:	40e60633          	sub	a2,a2,a4
80001278:	00561513          	slli	a0,a2,0x5
8000127c:	00a60633          	add	a2,a2,a0
80001280:	00c787b3          	add	a5,a5,a2
80001284:	0ff7f793          	zext.b	a5,a5
80001288:	02b7d633          	divu	a2,a5,a1
8000128c:	00871713          	slli	a4,a4,0x8
80001290:	00261513          	slli	a0,a2,0x2
80001294:	00a60533          	add	a0,a2,a0
80001298:	40a787b3          	sub	a5,a5,a0
8000129c:	00861613          	slli	a2,a2,0x8
800012a0:	02b74733          	div	a4,a4,a1
800012a4:	0ff7f793          	zext.b	a5,a5
800012a8:	00879793          	slli	a5,a5,0x8
800012ac:	00ff0537          	lui	a0,0xff0
800012b0:	02b64633          	div	a2,a2,a1
800012b4:	01071713          	slli	a4,a4,0x10
800012b8:	00a77733          	and	a4,a4,a0
800012bc:	02b7c7b3          	div	a5,a5,a1
800012c0:	00861613          	slli	a2,a2,0x8
800012c4:	01867633          	and	a2,a2,s8
800012c8:	00c76733          	or	a4,a4,a2
800012cc:	0ff7f793          	zext.b	a5,a5
800012d0:	00f76733          	or	a4,a4,a5
800012d4:	00009797          	auipc	a5,0x9
800012d8:	3cc78793          	addi	a5,a5,972 # 8000a6a0 <buf.1>
800012dc:	00e7a023          	sw	a4,0(a5)
800012e0:	00478793          	addi	a5,a5,4
800012e4:	fef41ce3          	bne	s0,a5,800012dc <galton+0x240>
800012e8:	01810593          	addi	a1,sp,24
800012ec:	00b00513          	li	a0,11
800012f0:	01212c23          	sw	s2,24(sp)
800012f4:	01412e23          	sw	s4,28(sp)
800012f8:	03512023          	sw	s5,32(sp)
800012fc:	03a12223          	sw	s10,36(sp)
80001300:	03a12423          	sw	s10,40(sp)
80001304:	02010623          	sb	zero,44(sp)
80001308:	4b9010ef          	jal	ra,80002fc0 <ioe_write>
8000130c:	0004c783          	lbu	a5,0(s1)
80001310:	01378e63          	beq	a5,s3,8000132c <galton+0x290>
80001314:	01348023          	sb	s3,0(s1)
80001318:	00009797          	auipc	a5,0x9
8000131c:	38878793          	addi	a5,a5,904 # 8000a6a0 <buf.1>
80001320:	0007a023          	sw	zero,0(a5)
80001324:	00478793          	addi	a5,a5,4
80001328:	fef41ce3          	bne	s0,a5,80001320 <galton+0x284>
8000132c:	00490793          	addi	a5,s2,4
80001330:	01810593          	addi	a1,sp,24
80001334:	00b00513          	li	a0,11
80001338:	00f12c23          	sw	a5,24(sp)
8000133c:	01412e23          	sw	s4,28(sp)
80001340:	03512023          	sw	s5,32(sp)
80001344:	03a12223          	sw	s10,36(sp)
80001348:	03a12423          	sw	s10,40(sp)
8000134c:	02010623          	sb	zero,44(sp)
80001350:	471010ef          	jal	ra,80002fc0 <ioe_write>
80001354:	00890913          	addi	s2,s2,8
80001358:	08800793          	li	a5,136
8000135c:	001c8c93          	addi	s9,s9,1
80001360:	ecf91ce3          	bne	s2,a5,80001238 <galton+0x19c>
80001364:	00412703          	lw	a4,4(sp)
80001368:	00812683          	lw	a3,8(sp)
8000136c:	000da783          	lw	a5,0(s11)
80001370:	00170713          	addi	a4,a4,1
80001374:	01168693          	addi	a3,a3,17
80001378:	00e12223          	sw	a4,4(sp)
8000137c:	00d12423          	sw	a3,8(sp)
80001380:	e8f74ee3          	blt	a4,a5,8000121c <galton+0x180>
80001384:	00100793          	li	a5,1
80001388:	00b00513          	li	a0,11
8000138c:	01810593          	addi	a1,sp,24
80001390:	02f10623          	sb	a5,44(sp)
80001394:	00012c23          	sw	zero,24(sp)
80001398:	00012e23          	sw	zero,28(sp)
8000139c:	02012023          	sw	zero,32(sp)
800013a0:	02012223          	sw	zero,36(sp)
800013a4:	02012423          	sw	zero,40(sp)
800013a8:	419010ef          	jal	ra,80002fc0 <ioe_write>
800013ac:	01810593          	addi	a1,sp,24
800013b0:	00600513          	li	a0,6
800013b4:	3f1010ef          	jal	ra,80002fa4 <ioe_read>
800013b8:	01812783          	lw	a5,24(sp)
800013bc:	000014b7          	lui	s1,0x1
800013c0:	01c12703          	lw	a4,28(sp)
800013c4:	77048493          	addi	s1,s1,1904 # 1770 <_entry_offset+0x1770>
800013c8:	009784b3          	add	s1,a5,s1
800013cc:	00f4b7b3          	sltu	a5,s1,a5
800013d0:	00e78433          	add	s0,a5,a4
800013d4:	01810593          	addi	a1,sp,24
800013d8:	00600513          	li	a0,6
800013dc:	3c9010ef          	jal	ra,80002fa4 <ioe_read>
800013e0:	01c12783          	lw	a5,28(sp)
800013e4:	01812703          	lw	a4,24(sp)
800013e8:	fe87e6e3          	bltu	a5,s0,800013d4 <galton+0x338>
800013ec:	00f41463          	bne	s0,a5,800013f4 <galton+0x358>
800013f0:	fe9762e3          	bltu	a4,s1,800013d4 <galton+0x338>
800013f4:	0000b797          	auipc	a5,0xb
800013f8:	e3478793          	addi	a5,a5,-460 # 8000c228 <cnt>
800013fc:	0007a983          	lw	s3,0(a5)
80001400:	0d305863          	blez	s3,800014d0 <galton+0x434>
80001404:	00000b93          	li	s7,0
80001408:	02000c93          	li	s9,32
8000140c:	02a00d13          	li	s10,42
80001410:	0000b797          	auipc	a5,0xb
80001414:	e2878793          	addi	a5,a5,-472 # 8000c238 <y>
80001418:	0007aa03          	lw	s4,0(a5)
8000141c:	0000b717          	auipc	a4,0xb
80001420:	e1870713          	addi	a4,a4,-488 # 8000c234 <x>
80001424:	002b9793          	slli	a5,s7,0x2
80001428:	00072a83          	lw	s5,0(a4)
8000142c:	00fa0a33          	add	s4,s4,a5
80001430:	000a2403          	lw	s0,0(s4)
80001434:	00fa8ab3          	add	s5,s5,a5
80001438:	000aa983          	lw	s3,0(s5)
8000143c:	08044063          	bltz	s0,800014bc <galton+0x420>
80001440:	000da783          	lw	a5,0(s11)
80001444:	fff78793          	addi	a5,a5,-1
80001448:	06f40663          	beq	s0,a5,800014b4 <galton+0x418>
8000144c:	00140613          	addi	a2,s0,1
80001450:	0000b797          	auipc	a5,0xb
80001454:	dd478793          	addi	a5,a5,-556 # 8000c224 <b>
80001458:	0007a903          	lw	s2,0(a5)
8000145c:	00461593          	slli	a1,a2,0x4
80001460:	00c585b3          	add	a1,a1,a2
80001464:	00b98833          	add	a6,s3,a1
80001468:	01090833          	add	a6,s2,a6
8000146c:	00084503          	lbu	a0,0(a6) # 300000 <_entry_offset+0x300000>
80001470:	fef58593          	addi	a1,a1,-17
80001474:	00b987b3          	add	a5,s3,a1
80001478:	21950063          	beq	a0,s9,80001678 <galton+0x5dc>
8000147c:	00300313          	li	t1,3
80001480:	01a51463          	bne	a0,s10,80001488 <galton+0x3ec>
80001484:	00100313          	li	t1,1
80001488:	00f00713          	li	a4,15
8000148c:	00f904b3          	add	s1,s2,a5
80001490:	19374863          	blt	a4,s3,80001620 <galton+0x584>
80001494:	0014c503          	lbu	a0,1(s1)
80001498:	05950e63          	beq	a0,s9,800014f4 <galton+0x458>
8000149c:	18099263          	bnez	s3,80001620 <galton+0x584>
800014a0:	00f907b3          	add	a5,s2,a5
800014a4:	0007c703          	lbu	a4,0(a5)
800014a8:	01978023          	sb	s9,0(a5)
800014ac:	013aa023          	sw	s3,0(s5)
800014b0:	00e48023          	sb	a4,0(s1)
800014b4:	fff00793          	li	a5,-1
800014b8:	00fa2023          	sw	a5,0(s4)
800014bc:	0000b797          	auipc	a5,0xb
800014c0:	d6c78793          	addi	a5,a5,-660 # 8000c228 <cnt>
800014c4:	0007a983          	lw	s3,0(a5)
800014c8:	001b8b93          	addi	s7,s7,1
800014cc:	f53bc2e3          	blt	s7,s3,80001410 <galton+0x374>
800014d0:	0000b697          	auipc	a3,0xb
800014d4:	d6068693          	addi	a3,a3,-672 # 8000c230 <step.0>
800014d8:	0006a783          	lw	a5,0(a3)
800014dc:	00200713          	li	a4,2
800014e0:	00178793          	addi	a5,a5,1
800014e4:	00f6a023          	sw	a5,0(a3)
800014e8:	06e78e63          	beq	a5,a4,80001564 <galton+0x4c8>
800014ec:	000da483          	lw	s1,0(s11)
800014f0:	d09ff06f          	j	800011f8 <galton+0x15c>
800014f4:	00184503          	lbu	a0,1(a6)
800014f8:	fb9512e3          	bne	a0,s9,8000149c <galton+0x400>
800014fc:	01012623          	sw	a6,12(sp)
80001500:	00b12423          	sw	a1,8(sp)
80001504:	00612223          	sw	t1,4(sp)
80001508:	4f1010ef          	jal	ra,800031f8 <rand>
8000150c:	00412303          	lw	t1,4(sp)
80001510:	00812583          	lw	a1,8(sp)
80001514:	00c12803          	lw	a6,12(sp)
80001518:	026568b3          	rem	a7,a0,t1
8000151c:	0018b893          	seqz	a7,a7
80001520:	1c099a63          	bnez	s3,800016f4 <galton+0x658>
80001524:	000a2503          	lw	a0,0(s4)
80001528:	000aa803          	lw	a6,0(s5)
8000152c:	00451793          	slli	a5,a0,0x4
80001530:	00a787b3          	add	a5,a5,a0
80001534:	010787b3          	add	a5,a5,a6
80001538:	f60884e3          	beqz	a7,800014a0 <galton+0x404>
8000153c:	00198993          	addi	s3,s3,1
80001540:	00b985b3          	add	a1,s3,a1
80001544:	00f907b3          	add	a5,s2,a5
80001548:	0007c603          	lbu	a2,0(a5)
8000154c:	01978023          	sb	s9,0(a5)
80001550:	008a2023          	sw	s0,0(s4)
80001554:	013aa023          	sw	s3,0(s5)
80001558:	00b906b3          	add	a3,s2,a1
8000155c:	00c68023          	sb	a2,0(a3)
80001560:	f5dff06f          	j	800014bc <galton+0x420>
80001564:	3ff00793          	li	a5,1023
80001568:	f937c2e3          	blt	a5,s3,800014ec <galton+0x450>
8000156c:	0000b797          	auipc	a5,0xb
80001570:	cc878793          	addi	a5,a5,-824 # 8000c234 <x>
80001574:	0007a483          	lw	s1,0(a5)
80001578:	0000b797          	auipc	a5,0xb
8000157c:	cc078793          	addi	a5,a5,-832 # 8000c238 <y>
80001580:	0007a903          	lw	s2,0(a5)
80001584:	00299793          	slli	a5,s3,0x2
80001588:	00f484b3          	add	s1,s1,a5
8000158c:	00800713          	li	a4,8
80001590:	00e4a023          	sw	a4,0(s1)
80001594:	00f90933          	add	s2,s2,a5
80001598:	00092023          	sw	zero,0(s2)
8000159c:	0000b797          	auipc	a5,0xb
800015a0:	c8878793          	addi	a5,a5,-888 # 8000c224 <b>
800015a4:	0007a403          	lw	s0,0(a5)
800015a8:	0004a783          	lw	a5,0(s1)
800015ac:	0000b717          	auipc	a4,0xb
800015b0:	c8072223          	sw	zero,-892(a4) # 8000c230 <step.0>
800015b4:	02000713          	li	a4,32
800015b8:	00f407b3          	add	a5,s0,a5
800015bc:	0007c783          	lbu	a5,0(a5)
800015c0:	0ee78863          	beq	a5,a4,800016b0 <galton+0x614>
800015c4:	06c12083          	lw	ra,108(sp)
800015c8:	06812403          	lw	s0,104(sp)
800015cc:	06412483          	lw	s1,100(sp)
800015d0:	06012903          	lw	s2,96(sp)
800015d4:	05c12983          	lw	s3,92(sp)
800015d8:	05812a03          	lw	s4,88(sp)
800015dc:	05412a83          	lw	s5,84(sp)
800015e0:	05012b03          	lw	s6,80(sp)
800015e4:	04c12b83          	lw	s7,76(sp)
800015e8:	04812c03          	lw	s8,72(sp)
800015ec:	04412c83          	lw	s9,68(sp)
800015f0:	04012d03          	lw	s10,64(sp)
800015f4:	03c12d83          	lw	s11,60(sp)
800015f8:	07010113          	addi	sp,sp,112
800015fc:	00008067          	ret
80001600:	cf7704e3          	beq	a4,s7,800012e8 <galton+0x24c>
80001604:	01748023          	sb	s7,0(s1)
80001608:	00009797          	auipc	a5,0x9
8000160c:	09878793          	addi	a5,a5,152 # 8000a6a0 <buf.1>
80001610:	0167a023          	sw	s6,0(a5)
80001614:	00478793          	addi	a5,a5,4
80001618:	ccf408e3          	beq	s0,a5,800012e8 <galton+0x24c>
8000161c:	ff5ff06f          	j	80001610 <galton+0x574>
80001620:	fff4c503          	lbu	a0,-1(s1)
80001624:	e7951ee3          	bne	a0,s9,800014a0 <galton+0x404>
80001628:	fff84783          	lbu	a5,-1(a6)
8000162c:	00000893          	li	a7,0
80001630:	0d979e63          	bne	a5,s9,8000170c <galton+0x670>
80001634:	00b12623          	sw	a1,12(sp)
80001638:	01112423          	sw	a7,8(sp)
8000163c:	00612223          	sw	t1,4(sp)
80001640:	3b9010ef          	jal	ra,800031f8 <rand>
80001644:	00412303          	lw	t1,4(sp)
80001648:	00812883          	lw	a7,8(sp)
8000164c:	00c12583          	lw	a1,12(sp)
80001650:	026567b3          	rem	a5,a0,t1
80001654:	ec0798e3          	bnez	a5,80001524 <galton+0x488>
80001658:	000a2603          	lw	a2,0(s4)
8000165c:	000aa503          	lw	a0,0(s5)
80001660:	fff98993          	addi	s3,s3,-1
80001664:	00461793          	slli	a5,a2,0x4
80001668:	00c787b3          	add	a5,a5,a2
8000166c:	00a787b3          	add	a5,a5,a0
80001670:	00b985b3          	add	a1,s3,a1
80001674:	ed1ff06f          	j	80001544 <galton+0x4a8>
80001678:	00f907b3          	add	a5,s2,a5
8000167c:	0007c703          	lbu	a4,0(a5)
80001680:	01978023          	sb	s9,0(a5)
80001684:	00ca2023          	sw	a2,0(s4)
80001688:	013aa023          	sw	s3,0(s5)
8000168c:	00e80023          	sb	a4,0(a6)
80001690:	e2dff06f          	j	800014bc <galton+0x420>
80001694:	01d00713          	li	a4,29
80001698:	0000bd97          	auipc	s11,0xb
8000169c:	b94d8d93          	addi	s11,s11,-1132 # 8000c22c <h>
800016a0:	00f74463          	blt	a4,a5,800016a8 <galton+0x60c>
800016a4:	01e00793          	li	a5,30
800016a8:	00fda023          	sw	a5,0(s11)
800016ac:	a61ff06f          	j	8000110c <galton+0x70>
800016b0:	349010ef          	jal	ra,800031f8 <rand>
800016b4:	05000793          	li	a5,80
800016b8:	02f56733          	rem	a4,a0,a5
800016bc:	00092683          	lw	a3,0(s2)
800016c0:	0004a603          	lw	a2,0(s1)
800016c4:	00198993          	addi	s3,s3,1
800016c8:	00469793          	slli	a5,a3,0x4
800016cc:	00d787b3          	add	a5,a5,a3
800016d0:	00f407b3          	add	a5,s0,a5
800016d4:	00c787b3          	add	a5,a5,a2
800016d8:	0000b697          	auipc	a3,0xb
800016dc:	b5068693          	addi	a3,a3,-1200 # 8000c228 <cnt>
800016e0:	000da483          	lw	s1,0(s11)
800016e4:	0136a023          	sw	s3,0(a3)
800016e8:	02b70713          	addi	a4,a4,43
800016ec:	00e78023          	sb	a4,0(a5)
800016f0:	b09ff06f          	j	800011f8 <galton+0x15c>
800016f4:	fff4c783          	lbu	a5,-1(s1)
800016f8:	e39796e3          	bne	a5,s9,80001524 <galton+0x488>
800016fc:	fff84783          	lbu	a5,-1(a6)
80001700:	00130313          	addi	t1,t1,1
80001704:	e39790e3          	bne	a5,s9,80001524 <galton+0x488>
80001708:	f2dff06f          	j	80001634 <galton+0x598>
8000170c:	01100793          	li	a5,17
80001710:	028787b3          	mul	a5,a5,s0
80001714:	013787b3          	add	a5,a5,s3
80001718:	d89ff06f          	j	800014a0 <galton+0x404>

8000171c <show>:
8000171c:	f9010113          	addi	sp,sp,-112
80001720:	06912223          	sw	s1,100(sp)
80001724:	00007497          	auipc	s1,0x7
80001728:	fcc48493          	addi	s1,s1,-52 # 800086f0 <w>
8000172c:	05912223          	sw	s9,68(sp)
80001730:	0004ac83          	lw	s9,0(s1)
80001734:	06812423          	sw	s0,104(sp)
80001738:	07212023          	sw	s2,96(sp)
8000173c:	05312e23          	sw	s3,92(sp)
80001740:	05412c23          	sw	s4,88(sp)
80001744:	05512a23          	sw	s5,84(sp)
80001748:	05812423          	sw	s8,72(sp)
8000174c:	06112623          	sw	ra,108(sp)
80001750:	05612823          	sw	s6,80(sp)
80001754:	05712623          	sw	s7,76(sp)
80001758:	05a12023          	sw	s10,64(sp)
8000175c:	03b12e23          	sw	s11,60(sp)
80001760:	00050c13          	mv	s8,a0
80001764:	00000413          	li	s0,0
80001768:	00009a97          	auipc	s5,0x9
8000176c:	4b8a8a93          	addi	s5,s5,1208 # 8000ac20 <buf.2>
80001770:	14000a13          	li	s4,320
80001774:	00100993          	li	s3,1
80001778:	0c800913          	li	s2,200
8000177c:	00812e23          	sw	s0,28(sp)
80001780:	01810593          	addi	a1,sp,24
80001784:	00140413          	addi	s0,s0,1
80001788:	00b00513          	li	a0,11
8000178c:	00012c23          	sw	zero,24(sp)
80001790:	03512023          	sw	s5,32(sp)
80001794:	03412223          	sw	s4,36(sp)
80001798:	03312423          	sw	s3,40(sp)
8000179c:	02010623          	sb	zero,44(sp)
800017a0:	021010ef          	jal	ra,80002fc0 <ioe_write>
800017a4:	fd241ce3          	bne	s0,s2,8000177c <show+0x60>
800017a8:	00007797          	auipc	a5,0x7
800017ac:	f3878793          	addi	a5,a5,-200 # 800086e0 <h>
800017b0:	0007a783          	lw	a5,0(a5)
800017b4:	0ef05063          	blez	a5,80001894 <show+0x178>
800017b8:	002c9793          	slli	a5,s9,0x2
800017bc:	00cc6ab7          	lui	s5,0xcc6
800017c0:	00f12623          	sw	a5,12(sp)
800017c4:	01812423          	sw	s8,8(sp)
800017c8:	00000b93          	li	s7,0
800017cc:	00007417          	auipc	s0,0x7
800017d0:	f1a40413          	addi	s0,s0,-230 # 800086e6 <last_c.1>
800017d4:	00009997          	auipc	s3,0x9
800017d8:	40c98993          	addi	s3,s3,1036 # 8000abe0 <buf.0>
800017dc:	00009d97          	auipc	s11,0x9
800017e0:	444d8d93          	addi	s11,s11,1092 # 8000ac20 <buf.2>
800017e4:	02000b13          	li	s6,32
800017e8:	633a8a93          	addi	s5,s5,1587 # cc6633 <_entry_offset+0xcc6633>
800017ec:	0004a783          	lw	a5,0(s1)
800017f0:	08f05063          	blez	a5,80001870 <show+0x154>
800017f4:	00812c03          	lw	s8,8(sp)
800017f8:	002b9913          	slli	s2,s7,0x2
800017fc:	00000d13          	li	s10,0
80001800:	06f00a13          	li	s4,111
80001804:	00400c93          	li	s9,4
80001808:	000c2783          	lw	a5,0(s8)
8000180c:	00044583          	lbu	a1,0(s0)
80001810:	0e078463          	beqz	a5,800018f8 <show+0x1dc>
80001814:	06f00793          	li	a5,111
80001818:	000a8713          	mv	a4,s5
8000181c:	01458e63          	beq	a1,s4,80001838 <show+0x11c>
80001820:	00f40023          	sb	a5,0(s0)
80001824:	00009797          	auipc	a5,0x9
80001828:	3bc78793          	addi	a5,a5,956 # 8000abe0 <buf.0>
8000182c:	00e7a023          	sw	a4,0(a5)
80001830:	00478793          	addi	a5,a5,4
80001834:	fefd9ce3          	bne	s11,a5,8000182c <show+0x110>
80001838:	002d1793          	slli	a5,s10,0x2
8000183c:	01810593          	addi	a1,sp,24
80001840:	00b00513          	li	a0,11
80001844:	00f12c23          	sw	a5,24(sp)
80001848:	01212e23          	sw	s2,28(sp)
8000184c:	03312023          	sw	s3,32(sp)
80001850:	03912223          	sw	s9,36(sp)
80001854:	03912423          	sw	s9,40(sp)
80001858:	02010623          	sb	zero,44(sp)
8000185c:	764010ef          	jal	ra,80002fc0 <ioe_write>
80001860:	0004a783          	lw	a5,0(s1)
80001864:	001d0d13          	addi	s10,s10,1
80001868:	004c0c13          	addi	s8,s8,4
8000186c:	f8fd4ee3          	blt	s10,a5,80001808 <show+0xec>
80001870:	00812703          	lw	a4,8(sp)
80001874:	00c12683          	lw	a3,12(sp)
80001878:	00007797          	auipc	a5,0x7
8000187c:	e6878793          	addi	a5,a5,-408 # 800086e0 <h>
80001880:	0007a783          	lw	a5,0(a5)
80001884:	00d70733          	add	a4,a4,a3
80001888:	001b8b93          	addi	s7,s7,1
8000188c:	00e12423          	sw	a4,8(sp)
80001890:	f4fbcee3          	blt	s7,a5,800017ec <show+0xd0>
80001894:	01810593          	addi	a1,sp,24
80001898:	00100793          	li	a5,1
8000189c:	00b00513          	li	a0,11
800018a0:	00012c23          	sw	zero,24(sp)
800018a4:	00012e23          	sw	zero,28(sp)
800018a8:	02012023          	sw	zero,32(sp)
800018ac:	02012223          	sw	zero,36(sp)
800018b0:	02012423          	sw	zero,40(sp)
800018b4:	02f10623          	sb	a5,44(sp)
800018b8:	708010ef          	jal	ra,80002fc0 <ioe_write>
800018bc:	06c12083          	lw	ra,108(sp)
800018c0:	06812403          	lw	s0,104(sp)
800018c4:	06412483          	lw	s1,100(sp)
800018c8:	06012903          	lw	s2,96(sp)
800018cc:	05c12983          	lw	s3,92(sp)
800018d0:	05812a03          	lw	s4,88(sp)
800018d4:	05412a83          	lw	s5,84(sp)
800018d8:	05012b03          	lw	s6,80(sp)
800018dc:	04c12b83          	lw	s7,76(sp)
800018e0:	04812c03          	lw	s8,72(sp)
800018e4:	04412c83          	lw	s9,68(sp)
800018e8:	04012d03          	lw	s10,64(sp)
800018ec:	03c12d83          	lw	s11,60(sp)
800018f0:	07010113          	addi	sp,sp,112
800018f4:	00008067          	ret
800018f8:	f56580e3          	beq	a1,s6,80001838 <show+0x11c>
800018fc:	02000793          	li	a5,32
80001900:	00000713          	li	a4,0
80001904:	f1dff06f          	j	80001820 <show+0x104>

80001908 <evolve>:
80001908:	fe010113          	addi	sp,sp,-32
8000190c:	00812e23          	sw	s0,28(sp)
80001910:	00912c23          	sw	s1,24(sp)
80001914:	01212a23          	sw	s2,20(sp)
80001918:	01312823          	sw	s3,16(sp)
8000191c:	01412623          	sw	s4,12(sp)
80001920:	01512423          	sw	s5,8(sp)
80001924:	01612223          	sw	s6,4(sp)
80001928:	01712023          	sw	s7,0(sp)
8000192c:	02010413          	addi	s0,sp,32
80001930:	00007817          	auipc	a6,0x7
80001934:	dc082803          	lw	a6,-576(a6) # 800086f0 <w>
80001938:	00007e97          	auipc	t4,0x7
8000193c:	da8eae83          	lw	t4,-600(t4) # 800086e0 <h>
80001940:	03d807b3          	mul	a5,a6,t4
80001944:	00279793          	slli	a5,a5,0x2
80001948:	00f78793          	addi	a5,a5,15
8000194c:	ff07f793          	andi	a5,a5,-16
80001950:	40f10133          	sub	sp,sp,a5
80001954:	11d05263          	blez	t4,80001a58 <evolve+0x150>
80001958:	00010993          	mv	s3,sp
8000195c:	001e8b93          	addi	s7,t4,1
80001960:	00180493          	addi	s1,a6,1
80001964:	00050f93          	mv	t6,a0
80001968:	00281313          	slli	t1,a6,0x2
8000196c:	002e8e13          	addi	t3,t4,2
80001970:	fffe8393          	addi	t2,t4,-1
80001974:	00050a13          	mv	s4,a0
80001978:	001b9b93          	slli	s7,s7,0x1
8000197c:	00149493          	slli	s1,s1,0x1
80001980:	00050b13          	mv	s6,a0
80001984:	00098a93          	mv	s5,s3
80001988:	00300913          	li	s2,3
8000198c:	07005e63          	blez	a6,80001a08 <evolve+0x100>
80001990:	00280513          	addi	a0,a6,2
80001994:	fff80893          	addi	a7,a6,-1
80001998:	000b0293          	mv	t0,s6
8000199c:	000a8f13          	mv	t5,s5
800019a0:	00038593          	mv	a1,t2
800019a4:	00000613          	li	a2,0
800019a8:	03d5e6b3          	rem	a3,a1,t4
800019ac:	00088713          	mv	a4,a7
800019b0:	026686b3          	mul	a3,a3,t1
800019b4:	00df86b3          	add	a3,t6,a3
800019b8:	030767b3          	rem	a5,a4,a6
800019bc:	00170713          	addi	a4,a4,1
800019c0:	00279793          	slli	a5,a5,0x2
800019c4:	00f687b3          	add	a5,a3,a5
800019c8:	0007a783          	lw	a5,0(a5)
800019cc:	00f037b3          	snez	a5,a5
800019d0:	00f60633          	add	a2,a2,a5
800019d4:	fea712e3          	bne	a4,a0,800019b8 <evolve+0xb0>
800019d8:	00158593          	addi	a1,a1,1
800019dc:	fdc596e3          	bne	a1,t3,800019a8 <evolve+0xa0>
800019e0:	0002a783          	lw	a5,0(t0)
800019e4:	0a079063          	bnez	a5,80001a84 <evolve+0x17c>
800019e8:	ffd60793          	addi	a5,a2,-3
800019ec:	0017b793          	seqz	a5,a5
800019f0:	00ff2023          	sw	a5,0(t5)
800019f4:	00150513          	addi	a0,a0,1 # ff0001 <_entry_offset+0xff0001>
800019f8:	004f0f13          	addi	t5,t5,4
800019fc:	00428293          	addi	t0,t0,4
80001a00:	00188893          	addi	a7,a7,1
80001a04:	f8951ee3          	bne	a0,s1,800019a0 <evolve+0x98>
80001a08:	001e0e13          	addi	t3,t3,1
80001a0c:	00138393          	addi	t2,t2,1 # 300001 <_entry_offset+0x300001>
80001a10:	006a8ab3          	add	s5,s5,t1
80001a14:	006b0b33          	add	s6,s6,t1
80001a18:	f77e1ae3          	bne	t3,s7,8000198c <evolve+0x84>
80001a1c:	00000593          	li	a1,0
80001a20:	000a0693          	mv	a3,s4
80001a24:	00098713          	mv	a4,s3
80001a28:	00000793          	li	a5,0
80001a2c:	01005e63          	blez	a6,80001a48 <evolve+0x140>
80001a30:	00072603          	lw	a2,0(a4)
80001a34:	00178793          	addi	a5,a5,1
80001a38:	00470713          	addi	a4,a4,4
80001a3c:	00c6a023          	sw	a2,0(a3)
80001a40:	00468693          	addi	a3,a3,4
80001a44:	fef816e3          	bne	a6,a5,80001a30 <evolve+0x128>
80001a48:	00158593          	addi	a1,a1,1
80001a4c:	006989b3          	add	s3,s3,t1
80001a50:	006a0a33          	add	s4,s4,t1
80001a54:	fcbe96e3          	bne	t4,a1,80001a20 <evolve+0x118>
80001a58:	fe040113          	addi	sp,s0,-32
80001a5c:	01c12403          	lw	s0,28(sp)
80001a60:	01812483          	lw	s1,24(sp)
80001a64:	01412903          	lw	s2,20(sp)
80001a68:	01012983          	lw	s3,16(sp)
80001a6c:	00c12a03          	lw	s4,12(sp)
80001a70:	00812a83          	lw	s5,8(sp)
80001a74:	00412b03          	lw	s6,4(sp)
80001a78:	00012b83          	lw	s7,0(sp)
80001a7c:	02010113          	addi	sp,sp,32
80001a80:	00008067          	ret
80001a84:	fff60713          	addi	a4,a2,-1
80001a88:	00100793          	li	a5,1
80001a8c:	f72702e3          	beq	a4,s2,800019f0 <evolve+0xe8>
80001a90:	ffd60613          	addi	a2,a2,-3
80001a94:	00163793          	seqz	a5,a2
80001a98:	f59ff06f          	j	800019f0 <evolve+0xe8>

80001a9c <game_of_life>:
80001a9c:	fc010113          	addi	sp,sp,-64
80001aa0:	02112e23          	sw	ra,60(sp)
80001aa4:	02812c23          	sw	s0,56(sp)
80001aa8:	02912a23          	sw	s1,52(sp)
80001aac:	04010413          	addi	s0,sp,64
80001ab0:	03212823          	sw	s2,48(sp)
80001ab4:	03312623          	sw	s3,44(sp)
80001ab8:	03412423          	sw	s4,40(sp)
80001abc:	03512223          	sw	s5,36(sp)
80001ac0:	03612023          	sw	s6,32(sp)
80001ac4:	01712e23          	sw	s7,28(sp)
80001ac8:	01812c23          	sw	s8,24(sp)
80001acc:	fc040593          	addi	a1,s0,-64
80001ad0:	00900513          	li	a0,9
80001ad4:	4d0010ef          	jal	ra,80002fa4 <ioe_read>
80001ad8:	fc442703          	lw	a4,-60(s0)
80001adc:	00007497          	auipc	s1,0x7
80001ae0:	c1448493          	addi	s1,s1,-1004 # 800086f0 <w>
80001ae4:	fc040593          	addi	a1,s0,-64
80001ae8:	41f75793          	srai	a5,a4,0x1f
80001aec:	0037f793          	andi	a5,a5,3
80001af0:	00e787b3          	add	a5,a5,a4
80001af4:	4027d793          	srai	a5,a5,0x2
80001af8:	00900513          	li	a0,9
80001afc:	00f4a023          	sw	a5,0(s1)
80001b00:	4a4010ef          	jal	ra,80002fa4 <ioe_read>
80001b04:	fc842b03          	lw	s6,-56(s0)
80001b08:	0004aa83          	lw	s5,0(s1)
80001b0c:	41fb5993          	srai	s3,s6,0x1f
80001b10:	0039f993          	andi	s3,s3,3
80001b14:	016989b3          	add	s3,s3,s6
80001b18:	4029d993          	srai	s3,s3,0x2
80001b1c:	002a9a13          	slli	s4,s5,0x2
80001b20:	034987b3          	mul	a5,s3,s4
80001b24:	00007717          	auipc	a4,0x7
80001b28:	bb372e23          	sw	s3,-1092(a4) # 800086e0 <h>
80001b2c:	00f78793          	addi	a5,a5,15
80001b30:	ff07f793          	andi	a5,a5,-16
80001b34:	40f10133          	sub	sp,sp,a5
80001b38:	00010913          	mv	s2,sp
80001b3c:	05505863          	blez	s5,80001b8c <game_of_life+0xf0>
80001b40:	002a5a13          	srli	s4,s4,0x2
80001b44:	00000493          	li	s1,0
80001b48:	00300b93          	li	s7,3
80001b4c:	00000c13          	li	s8,0
80001b50:	036bda63          	bge	s7,s6,80001b84 <game_of_life+0xe8>
80001b54:	6a4010ef          	jal	ra,800031f8 <rand>
80001b58:	038a07b3          	mul	a5,s4,s8
80001b5c:	01f55713          	srli	a4,a0,0x1f
80001b60:	00e50533          	add	a0,a0,a4
80001b64:	00157513          	andi	a0,a0,1
80001b68:	40e50533          	sub	a0,a0,a4
80001b6c:	001c0c13          	addi	s8,s8,1
80001b70:	009787b3          	add	a5,a5,s1
80001b74:	00279793          	slli	a5,a5,0x2
80001b78:	00f907b3          	add	a5,s2,a5
80001b7c:	00a7a023          	sw	a0,0(a5)
80001b80:	fd3c4ae3          	blt	s8,s3,80001b54 <game_of_life+0xb8>
80001b84:	00148493          	addi	s1,s1,1
80001b88:	fc9a92e3          	bne	s5,s1,80001b4c <game_of_life+0xb0>
80001b8c:	00031a37          	lui	s4,0x31
80001b90:	d40a0a13          	addi	s4,s4,-704 # 30d40 <_entry_offset+0x30d40>
80001b94:	00090513          	mv	a0,s2
80001b98:	b85ff0ef          	jal	ra,8000171c <show>
80001b9c:	00090513          	mv	a0,s2
80001ba0:	d69ff0ef          	jal	ra,80001908 <evolve>
80001ba4:	fc040593          	addi	a1,s0,-64
80001ba8:	00600513          	li	a0,6
80001bac:	3f8010ef          	jal	ra,80002fa4 <ioe_read>
80001bb0:	fc042483          	lw	s1,-64(s0)
80001bb4:	fc442783          	lw	a5,-60(s0)
80001bb8:	014489b3          	add	s3,s1,s4
80001bbc:	0099b4b3          	sltu	s1,s3,s1
80001bc0:	00f484b3          	add	s1,s1,a5
80001bc4:	fc040593          	addi	a1,s0,-64
80001bc8:	00600513          	li	a0,6
80001bcc:	3d8010ef          	jal	ra,80002fa4 <ioe_read>
80001bd0:	fc442783          	lw	a5,-60(s0)
80001bd4:	fc042703          	lw	a4,-64(s0)
80001bd8:	fe97e6e3          	bltu	a5,s1,80001bc4 <game_of_life+0x128>
80001bdc:	faf49ce3          	bne	s1,a5,80001b94 <game_of_life+0xf8>
80001be0:	ff3762e3          	bltu	a4,s3,80001bc4 <game_of_life+0x128>
80001be4:	fb1ff06f          	j	80001b94 <game_of_life+0xf8>

80001be8 <aclock>:
80001be8:	f9010113          	addi	sp,sp,-112
80001bec:	05412c23          	sw	s4,88(sp)
80001bf0:	05612823          	sw	s6,80(sp)
80001bf4:	05912223          	sw	s9,68(sp)
80001bf8:	00cc0b37          	lui	s6,0xcc0
80001bfc:	00010cb7          	lui	s9,0x10
80001c00:	00990a37          	lui	s4,0x990
80001c04:	06812423          	sw	s0,104(sp)
80001c08:	06912223          	sw	s1,100(sp)
80001c0c:	05312e23          	sw	s3,92(sp)
80001c10:	05512a23          	sw	s5,84(sp)
80001c14:	05712623          	sw	s7,76(sp)
80001c18:	06112623          	sw	ra,108(sp)
80001c1c:	07212023          	sw	s2,96(sp)
80001c20:	05812423          	sw	s8,72(sp)
80001c24:	05a12023          	sw	s10,64(sp)
80001c28:	03b12e23          	sw	s11,60(sp)
80001c2c:	00009997          	auipc	s3,0x9
80001c30:	53498993          	addi	s3,s3,1332 # 8000b160 <buf.2>
80001c34:	00002b97          	auipc	s7,0x2
80001c38:	038b8b93          	addi	s7,s7,56 # 80003c6c <hour>
80001c3c:	00007497          	auipc	s1,0x7
80001c40:	aab48493          	addi	s1,s1,-1365 # 800086e7 <last_c.1>
80001c44:	00009a97          	auipc	s5,0x9
80001c48:	4dca8a93          	addi	s5,s5,1244 # 8000b120 <buf.0>
80001c4c:	00009417          	auipc	s0,0x9
80001c50:	51440413          	addi	s0,s0,1300 # 8000b160 <buf.2>
80001c54:	fffc8c93          	addi	s9,s9,-1 # ffff <_entry_offset+0xffff>
80001c58:	0ccb0b13          	addi	s6,s6,204 # cc00cc <_entry_offset+0xcc00cc>
80001c5c:	066a0a13          	addi	s4,s4,102 # 990066 <_entry_offset+0x990066>
80001c60:	01810593          	addi	a1,sp,24
80001c64:	00500513          	li	a0,5
80001c68:	33c010ef          	jal	ra,80002fa4 <ioe_read>
80001c6c:	02412783          	lw	a5,36(sp)
80001c70:	00000d93          	li	s11,0
80001c74:	14000d13          	li	s10,320
80001c78:	00f12223          	sw	a5,4(sp)
80001c7c:	02812783          	lw	a5,40(sp)
80001c80:	00100c13          	li	s8,1
80001c84:	0c800913          	li	s2,200
80001c88:	00f12423          	sw	a5,8(sp)
80001c8c:	02c12783          	lw	a5,44(sp)
80001c90:	00f12623          	sw	a5,12(sp)
80001c94:	01b12e23          	sw	s11,28(sp)
80001c98:	01810593          	addi	a1,sp,24
80001c9c:	001d8d93          	addi	s11,s11,1
80001ca0:	00b00513          	li	a0,11
80001ca4:	00012c23          	sw	zero,24(sp)
80001ca8:	03312023          	sw	s3,32(sp)
80001cac:	03a12223          	sw	s10,36(sp)
80001cb0:	03812423          	sw	s8,40(sp)
80001cb4:	02010623          	sb	zero,44(sp)
80001cb8:	308010ef          	jal	ra,80002fc0 <ioe_write>
80001cbc:	fd2d9ce3          	bne	s11,s2,80001c94 <aclock+0xac>
80001cc0:	00002d97          	auipc	s11,0x2
80001cc4:	ce8d8d93          	addi	s11,s11,-792 # 800039a8 <circle+0xc>
80001cc8:	06f00793          	li	a5,111
80001ccc:	00c00593          	li	a1,12
80001cd0:	03e00713          	li	a4,62
80001cd4:	02000c13          	li	s8,32
80001cd8:	00500913          	li	s2,5
80001cdc:	00400d13          	li	s10,4
80001ce0:	ff070713          	addi	a4,a4,-16
80001ce4:	0004c803          	lbu	a6,0(s1)
80001ce8:	01f75513          	srli	a0,a4,0x1f
80001cec:	00e50533          	add	a0,a0,a4
80001cf0:	0ff7f793          	zext.b	a5,a5
80001cf4:	40155513          	srai	a0,a0,0x1
80001cf8:	08f80863          	beq	a6,a5,80001d88 <aclock+0x1a0>
80001cfc:	00f48023          	sb	a5,0(s1)
80001d00:	00000713          	li	a4,0
80001d04:	07878863          	beq	a5,s8,80001d74 <aclock+0x18c>
80001d08:	01900713          	li	a4,25
80001d0c:	02e7d733          	divu	a4,a5,a4
80001d10:	00ff06b7          	lui	a3,0xff0
80001d14:	00371813          	slli	a6,a4,0x3
80001d18:	40e80833          	sub	a6,a6,a4
80001d1c:	00581893          	slli	a7,a6,0x5
80001d20:	01180833          	add	a6,a6,a7
80001d24:	010787b3          	add	a5,a5,a6
80001d28:	0ff7f793          	zext.b	a5,a5
80001d2c:	0327d833          	divu	a6,a5,s2
80001d30:	00871713          	slli	a4,a4,0x8
80001d34:	00281893          	slli	a7,a6,0x2
80001d38:	011808b3          	add	a7,a6,a7
80001d3c:	411787b3          	sub	a5,a5,a7
80001d40:	00881813          	slli	a6,a6,0x8
80001d44:	03274733          	div	a4,a4,s2
80001d48:	0ff7f793          	zext.b	a5,a5
80001d4c:	00879793          	slli	a5,a5,0x8
80001d50:	03284833          	div	a6,a6,s2
80001d54:	01071713          	slli	a4,a4,0x10
80001d58:	00d77733          	and	a4,a4,a3
80001d5c:	0327c7b3          	div	a5,a5,s2
80001d60:	00881813          	slli	a6,a6,0x8
80001d64:	01987833          	and	a6,a6,s9
80001d68:	01076733          	or	a4,a4,a6
80001d6c:	0ff7f793          	zext.b	a5,a5
80001d70:	00f76733          	or	a4,a4,a5
80001d74:	00009797          	auipc	a5,0x9
80001d78:	3ac78793          	addi	a5,a5,940 # 8000b120 <buf.0>
80001d7c:	00e7a023          	sw	a4,0(a5)
80001d80:	00478793          	addi	a5,a5,4
80001d84:	fe879ce3          	bne	a5,s0,80001d7c <aclock+0x194>
80001d88:	00251713          	slli	a4,a0,0x2
80001d8c:	00259793          	slli	a5,a1,0x2
80001d90:	00b00513          	li	a0,11
80001d94:	01810593          	addi	a1,sp,24
80001d98:	00e12c23          	sw	a4,24(sp)
80001d9c:	00f12e23          	sw	a5,28(sp)
80001da0:	03512023          	sw	s5,32(sp)
80001da4:	03a12223          	sw	s10,36(sp)
80001da8:	03a12423          	sw	s10,40(sp)
80001dac:	02010623          	sb	zero,44(sp)
80001db0:	210010ef          	jal	ra,80002fc0 <ioe_write>
80001db4:	01bb8c63          	beq	s7,s11,80001dcc <aclock+0x1e4>
80001db8:	000da703          	lw	a4,0(s11)
80001dbc:	004da583          	lw	a1,4(s11)
80001dc0:	008da783          	lw	a5,8(s11)
80001dc4:	00cd8d93          	addi	s11,s11,12
80001dc8:	f19ff06f          	j	80001ce0 <aclock+0xf8>
80001dcc:	00412703          	lw	a4,4(sp)
80001dd0:	00c00793          	li	a5,12
80001dd4:	26e7d263          	bge	a5,a4,80002038 <aclock+0x450>
80001dd8:	ff470793          	addi	a5,a4,-12
80001ddc:	00279713          	slli	a4,a5,0x2
80001de0:	00f70733          	add	a4,a4,a5
80001de4:	00812683          	lw	a3,8(sp)
80001de8:	00a00793          	li	a5,10
80001dec:	06800c13          	li	s8,104
80001df0:	02f6c7b3          	div	a5,a3,a5
80001df4:	00400d93          	li	s11,4
80001df8:	00e787b3          	add	a5,a5,a4
80001dfc:	00179913          	slli	s2,a5,0x1
80001e00:	00f90933          	add	s2,s2,a5
80001e04:	00491913          	slli	s2,s2,0x4
80001e08:	00002797          	auipc	a5,0x2
80001e0c:	e6478793          	addi	a5,a5,-412 # 80003c6c <hour>
80001e10:	01278d33          	add	s10,a5,s2
80001e14:	00002797          	auipc	a5,0x2
80001e18:	e8878793          	addi	a5,a5,-376 # 80003c9c <hour+0x30>
80001e1c:	01278933          	add	s2,a5,s2
80001e20:	000d2703          	lw	a4,0(s10)
80001e24:	0004c603          	lbu	a2,0(s1)
80001e28:	004d2683          	lw	a3,4(s10)
80001e2c:	ff070713          	addi	a4,a4,-16
80001e30:	01f75793          	srli	a5,a4,0x1f
80001e34:	00e787b3          	add	a5,a5,a4
80001e38:	4017d713          	srai	a4,a5,0x1
80001e3c:	01860e63          	beq	a2,s8,80001e58 <aclock+0x270>
80001e40:	01848023          	sb	s8,0(s1)
80001e44:	00009797          	auipc	a5,0x9
80001e48:	2dc78793          	addi	a5,a5,732 # 8000b120 <buf.0>
80001e4c:	0167a023          	sw	s6,0(a5)
80001e50:	00478793          	addi	a5,a5,4
80001e54:	fe879ce3          	bne	a5,s0,80001e4c <aclock+0x264>
80001e58:	00271793          	slli	a5,a4,0x2
80001e5c:	008d0d13          	addi	s10,s10,8
80001e60:	00269713          	slli	a4,a3,0x2
80001e64:	01810593          	addi	a1,sp,24
80001e68:	00b00513          	li	a0,11
80001e6c:	00f12c23          	sw	a5,24(sp)
80001e70:	00e12e23          	sw	a4,28(sp)
80001e74:	03512023          	sw	s5,32(sp)
80001e78:	03b12223          	sw	s11,36(sp)
80001e7c:	03b12423          	sw	s11,40(sp)
80001e80:	02010623          	sb	zero,44(sp)
80001e84:	13c010ef          	jal	ra,80002fc0 <ioe_write>
80001e88:	f9a91ce3          	bne	s2,s10,80001e20 <aclock+0x238>
80001e8c:	00812783          	lw	a5,8(sp)
80001e90:	04d00913          	li	s2,77
80001e94:	00400d93          	li	s11,4
80001e98:	00679c13          	slli	s8,a5,0x6
80001e9c:	00003797          	auipc	a5,0x3
80001ea0:	91078793          	addi	a5,a5,-1776 # 800047ac <minute>
80001ea4:	01878d33          	add	s10,a5,s8
80001ea8:	00003797          	auipc	a5,0x3
80001eac:	94478793          	addi	a5,a5,-1724 # 800047ec <minute+0x40>
80001eb0:	01878c33          	add	s8,a5,s8
80001eb4:	000d2703          	lw	a4,0(s10)
80001eb8:	0004c603          	lbu	a2,0(s1)
80001ebc:	004d2683          	lw	a3,4(s10)
80001ec0:	ff070713          	addi	a4,a4,-16
80001ec4:	01f75793          	srli	a5,a4,0x1f
80001ec8:	00e787b3          	add	a5,a5,a4
80001ecc:	4017d713          	srai	a4,a5,0x1
80001ed0:	01260e63          	beq	a2,s2,80001eec <aclock+0x304>
80001ed4:	01248023          	sb	s2,0(s1)
80001ed8:	00009797          	auipc	a5,0x9
80001edc:	24878793          	addi	a5,a5,584 # 8000b120 <buf.0>
80001ee0:	0147a023          	sw	s4,0(a5)
80001ee4:	00478793          	addi	a5,a5,4
80001ee8:	fef41ce3          	bne	s0,a5,80001ee0 <aclock+0x2f8>
80001eec:	00271793          	slli	a5,a4,0x2
80001ef0:	008d0d13          	addi	s10,s10,8
80001ef4:	00269713          	slli	a4,a3,0x2
80001ef8:	01810593          	addi	a1,sp,24
80001efc:	00b00513          	li	a0,11
80001f00:	00f12c23          	sw	a5,24(sp)
80001f04:	00e12e23          	sw	a4,28(sp)
80001f08:	03512023          	sw	s5,32(sp)
80001f0c:	03b12223          	sw	s11,36(sp)
80001f10:	03b12423          	sw	s11,40(sp)
80001f14:	02010623          	sb	zero,44(sp)
80001f18:	0a8010ef          	jal	ra,80002fc0 <ioe_write>
80001f1c:	f98d1ce3          	bne	s10,s8,80001eb4 <aclock+0x2cc>
80001f20:	00c12783          	lw	a5,12(sp)
80001f24:	0033dd37          	lui	s10,0x33d
80001f28:	02e00913          	li	s2,46
80001f2c:	00679c13          	slli	s8,a5,0x6
80001f30:	00003797          	auipc	a5,0x3
80001f34:	87c78793          	addi	a5,a5,-1924 # 800047ac <minute>
80001f38:	01878db3          	add	s11,a5,s8
80001f3c:	00003797          	auipc	a5,0x3
80001f40:	8b078793          	addi	a5,a5,-1872 # 800047ec <minute+0x40>
80001f44:	018787b3          	add	a5,a5,s8
80001f48:	00f12223          	sw	a5,4(sp)
80001f4c:	c33d0d13          	addi	s10,s10,-973 # 33cc33 <_entry_offset+0x33cc33>
80001f50:	00400c13          	li	s8,4
80001f54:	000da703          	lw	a4,0(s11)
80001f58:	0004c583          	lbu	a1,0(s1)
80001f5c:	004da683          	lw	a3,4(s11)
80001f60:	ff070713          	addi	a4,a4,-16
80001f64:	01f75793          	srli	a5,a4,0x1f
80001f68:	00e787b3          	add	a5,a5,a4
80001f6c:	4017d713          	srai	a4,a5,0x1
80001f70:	01258e63          	beq	a1,s2,80001f8c <aclock+0x3a4>
80001f74:	01248023          	sb	s2,0(s1)
80001f78:	00009797          	auipc	a5,0x9
80001f7c:	1a878793          	addi	a5,a5,424 # 8000b120 <buf.0>
80001f80:	01a7a023          	sw	s10,0(a5)
80001f84:	00478793          	addi	a5,a5,4
80001f88:	fef41ce3          	bne	s0,a5,80001f80 <aclock+0x398>
80001f8c:	00271793          	slli	a5,a4,0x2
80001f90:	01810593          	addi	a1,sp,24
80001f94:	00269713          	slli	a4,a3,0x2
80001f98:	00b00513          	li	a0,11
80001f9c:	00f12c23          	sw	a5,24(sp)
80001fa0:	00e12e23          	sw	a4,28(sp)
80001fa4:	03512023          	sw	s5,32(sp)
80001fa8:	03812223          	sw	s8,36(sp)
80001fac:	03812423          	sw	s8,40(sp)
80001fb0:	02010623          	sb	zero,44(sp)
80001fb4:	00c010ef          	jal	ra,80002fc0 <ioe_write>
80001fb8:	00412783          	lw	a5,4(sp)
80001fbc:	008d8d93          	addi	s11,s11,8
80001fc0:	f9b79ae3          	bne	a5,s11,80001f54 <aclock+0x36c>
80001fc4:	00100793          	li	a5,1
80001fc8:	00b00513          	li	a0,11
80001fcc:	01810593          	addi	a1,sp,24
80001fd0:	02f10623          	sb	a5,44(sp)
80001fd4:	00012c23          	sw	zero,24(sp)
80001fd8:	00012e23          	sw	zero,28(sp)
80001fdc:	02012023          	sw	zero,32(sp)
80001fe0:	02012223          	sw	zero,36(sp)
80001fe4:	02012423          	sw	zero,40(sp)
80001fe8:	7d9000ef          	jal	ra,80002fc0 <ioe_write>
80001fec:	01810593          	addi	a1,sp,24
80001ff0:	00600513          	li	a0,6
80001ff4:	7b1000ef          	jal	ra,80002fa4 <ioe_read>
80001ff8:	01812783          	lw	a5,24(sp)
80001ffc:	000f4c37          	lui	s8,0xf4
80002000:	01c12703          	lw	a4,28(sp)
80002004:	240c0c13          	addi	s8,s8,576 # f4240 <_entry_offset+0xf4240>
80002008:	01878c33          	add	s8,a5,s8
8000200c:	00fc37b3          	sltu	a5,s8,a5
80002010:	00e78933          	add	s2,a5,a4
80002014:	01810593          	addi	a1,sp,24
80002018:	00600513          	li	a0,6
8000201c:	789000ef          	jal	ra,80002fa4 <ioe_read>
80002020:	01c12783          	lw	a5,28(sp)
80002024:	01812703          	lw	a4,24(sp)
80002028:	ff27e6e3          	bltu	a5,s2,80002014 <aclock+0x42c>
8000202c:	c2f91ae3          	bne	s2,a5,80001c60 <aclock+0x78>
80002030:	ff8762e3          	bltu	a4,s8,80002014 <aclock+0x42c>
80002034:	c2dff06f          	j	80001c60 <aclock+0x78>
80002038:	00412783          	lw	a5,4(sp)
8000203c:	00279713          	slli	a4,a5,0x2
80002040:	00f70733          	add	a4,a4,a5
80002044:	da1ff06f          	j	80001de4 <aclock+0x1fc>

80002048 <main>:
80002048:	fe010113          	addi	sp,sp,-32
8000204c:	00812c23          	sw	s0,24(sp)
80002050:	00112e23          	sw	ra,28(sp)
80002054:	00050413          	mv	s0,a0
80002058:	6f1000ef          	jal	ra,80002f48 <ioe_init>
8000205c:	00044783          	lbu	a5,0(s0)
80002060:	00700713          	li	a4,7
80002064:	fcf78793          	addi	a5,a5,-49
80002068:	0ff7f793          	zext.b	a5,a5
8000206c:	08f76e63          	bltu	a4,a5,80002108 <main+0xc0>
80002070:	00003717          	auipc	a4,0x3
80002074:	6e070713          	addi	a4,a4,1760 # 80005750 <minute+0xfa4>
80002078:	00279793          	slli	a5,a5,0x2
8000207c:	00e787b3          	add	a5,a5,a4
80002080:	0007a783          	lw	a5,0(a5)
80002084:	00e787b3          	add	a5,a5,a4
80002088:	00078067          	jr	a5
8000208c:	ac5fe0ef          	jal	ra,80000b50 <donut>
80002090:	00003517          	auipc	a0,0x3
80002094:	6ac50513          	addi	a0,a0,1708 # 8000573c <minute+0xf90>
80002098:	59c010ef          	jal	ra,80003634 <printf>
8000209c:	01d00413          	li	s0,29
800020a0:	00810593          	addi	a1,sp,8
800020a4:	00800513          	li	a0,8
800020a8:	6fd000ef          	jal	ra,80002fa4 <ioe_read>
800020ac:	00814783          	lbu	a5,8(sp)
800020b0:	00c12703          	lw	a4,12(sp)
800020b4:	fe0786e3          	beqz	a5,800020a0 <main+0x58>
800020b8:	fe8714e3          	bne	a4,s0,800020a0 <main+0x58>
800020bc:	01c12083          	lw	ra,28(sp)
800020c0:	01812403          	lw	s0,24(sp)
800020c4:	00000513          	li	a0,0
800020c8:	02010113          	addi	sp,sp,32
800020cc:	00008067          	ret
800020d0:	0a8000ef          	jal	ra,80002178 <bf>
800020d4:	fbdff06f          	j	80002090 <main+0x48>
800020d8:	f39fd0ef          	jal	ra,80000010 <ant>
800020dc:	fb5ff06f          	j	80002090 <main+0x48>
800020e0:	fbdfe0ef          	jal	ra,8000109c <galton>
800020e4:	fadff06f          	j	80002090 <main+0x48>
800020e8:	909fe0ef          	jal	ra,800009f0 <hanoi>
800020ec:	fa5ff06f          	j	80002090 <main+0x48>
800020f0:	9adff0ef          	jal	ra,80001a9c <game_of_life>
800020f4:	f9dff06f          	j	80002090 <main+0x48>
800020f8:	af1ff0ef          	jal	ra,80001be8 <aclock>
800020fc:	f95ff06f          	j	80002090 <main+0x48>
80002100:	4d0000ef          	jal	ra,800025d0 <cmatrix>
80002104:	f8dff06f          	j	80002090 <main+0x48>
80002108:	00003517          	auipc	a0,0x3
8000210c:	5a450513          	addi	a0,a0,1444 # 800056ac <minute+0xf00>
80002110:	524010ef          	jal	ra,80003634 <printf>
80002114:	00003517          	auipc	a0,0x3
80002118:	5b450513          	addi	a0,a0,1460 # 800056c8 <minute+0xf1c>
8000211c:	518010ef          	jal	ra,80003634 <printf>
80002120:	00003517          	auipc	a0,0x3
80002124:	5b450513          	addi	a0,a0,1460 # 800056d4 <minute+0xf28>
80002128:	50c010ef          	jal	ra,80003634 <printf>
8000212c:	00003517          	auipc	a0,0x3
80002130:	5b850513          	addi	a0,a0,1464 # 800056e4 <minute+0xf38>
80002134:	500010ef          	jal	ra,80003634 <printf>
80002138:	00003517          	auipc	a0,0x3
8000213c:	5b850513          	addi	a0,a0,1464 # 800056f0 <minute+0xf44>
80002140:	4f4010ef          	jal	ra,80003634 <printf>
80002144:	00003517          	auipc	a0,0x3
80002148:	5c050513          	addi	a0,a0,1472 # 80005704 <minute+0xf58>
8000214c:	4e8010ef          	jal	ra,80003634 <printf>
80002150:	00003517          	auipc	a0,0x3
80002154:	5c450513          	addi	a0,a0,1476 # 80005714 <minute+0xf68>
80002158:	4dc010ef          	jal	ra,80003634 <printf>
8000215c:	00003517          	auipc	a0,0x3
80002160:	5c850513          	addi	a0,a0,1480 # 80005724 <minute+0xf78>
80002164:	4d0010ef          	jal	ra,80003634 <printf>
80002168:	00003517          	auipc	a0,0x3
8000216c:	5c850513          	addi	a0,a0,1480 # 80005730 <minute+0xf84>
80002170:	4c4010ef          	jal	ra,80003634 <printf>
80002174:	f1dff06f          	j	80002090 <main+0x48>

80002178 <bf>:
80002178:	fb010113          	addi	sp,sp,-80
8000217c:	00c00513          	li	a0,12
80002180:	04112623          	sw	ra,76(sp)
80002184:	04812423          	sw	s0,72(sp)
80002188:	04912223          	sw	s1,68(sp)
8000218c:	05212023          	sw	s2,64(sp)
80002190:	03312e23          	sw	s3,60(sp)
80002194:	03412c23          	sw	s4,56(sp)
80002198:	03512a23          	sw	s5,52(sp)
8000219c:	03612823          	sw	s6,48(sp)
800021a0:	03712623          	sw	s7,44(sp)
800021a4:	03812423          	sw	s8,40(sp)
800021a8:	03912223          	sw	s9,36(sp)
800021ac:	03a12023          	sw	s10,32(sp)
800021b0:	07c010ef          	jal	ra,8000322c <malloc>
800021b4:	00c00613          	li	a2,12
800021b8:	00000593          	li	a1,0
800021bc:	00050493          	mv	s1,a0
800021c0:	00000413          	li	s0,0
800021c4:	7bd000ef          	jal	ra,80003180 <memset>
800021c8:	00009a97          	auipc	s5,0x9
800021cc:	4d8a8a93          	addi	s5,s5,1240 # 8000b6a0 <buf.4>
800021d0:	14000a13          	li	s4,320
800021d4:	00100993          	li	s3,1
800021d8:	0c800913          	li	s2,200
800021dc:	00812623          	sw	s0,12(sp)
800021e0:	00810593          	addi	a1,sp,8
800021e4:	00140413          	addi	s0,s0,1
800021e8:	00b00513          	li	a0,11
800021ec:	00012423          	sw	zero,8(sp)
800021f0:	01512823          	sw	s5,16(sp)
800021f4:	01412a23          	sw	s4,20(sp)
800021f8:	01312c23          	sw	s3,24(sp)
800021fc:	00010e23          	sb	zero,28(sp)
80002200:	5c1000ef          	jal	ra,80002fc0 <ioe_write>
80002204:	fd241ce3          	bne	s0,s2,800021dc <bf+0x64>
80002208:	00003c17          	auipc	s8,0x3
8000220c:	569c0c13          	addi	s8,s8,1385 # 80005771 <minute+0xfc5>
80002210:	000a0b37          	lui	s6,0xa0
80002214:	02000413          	li	s0,32
80002218:	00000913          	li	s2,0
8000221c:	00000c93          	li	s9,0
80002220:	00000a13          	li	s4,0
80002224:	05b00d13          	li	s10,91
80002228:	05d00a93          	li	s5,93
8000222c:	01300b93          	li	s7,19
80002230:	00fb0b13          	addi	s6,s6,15 # a000f <_entry_offset+0xa000f>
80002234:	001c0c13          	addi	s8,s8,1
80002238:	04040a63          	beqz	s0,8000228c <bf+0x114>
8000223c:	01a40863          	beq	s0,s10,8000224c <bf+0xd4>
80002240:	0e8d7263          	bgeu	s10,s0,80002324 <bf+0x1ac>
80002244:	03541e63          	bne	s0,s5,80002280 <bf+0x108>
80002248:	020c8c63          	beqz	s9,80002280 <bf+0x108>
8000224c:	00c00513          	li	a0,12
80002250:	7dd000ef          	jal	ra,8000322c <malloc>
80002254:	00050993          	mv	s3,a0
80002258:	36050263          	beqz	a0,800025bc <bf+0x444>
8000225c:	00c00613          	li	a2,12
80002260:	00000593          	li	a1,0
80002264:	71d000ef          	jal	ra,80003180 <memset>
80002268:	0e0a0863          	beqz	s4,80002358 <bf+0x1e0>
8000226c:	013a2223          	sw	s3,4(s4)
80002270:	00898023          	sb	s0,0(s3)
80002274:	0da40863          	beq	s0,s10,80002344 <bf+0x1cc>
80002278:	00098a13          	mv	s4,s3
8000227c:	09540863          	beq	s0,s5,8000230c <bf+0x194>
80002280:	000c4403          	lbu	s0,0(s8)
80002284:	001c0c13          	addi	s8,s8,1
80002288:	fa041ae3          	bnez	s0,8000223c <bf+0xc4>
8000228c:	02000713          	li	a4,32
80002290:	000c8c63          	beqz	s9,800022a8 <bf+0x130>
80002294:	000c8793          	mv	a5,s9
80002298:	008cac83          	lw	s9,8(s9)
8000229c:	0007a423          	sw	zero,8(a5)
800022a0:	00e78023          	sb	a4,0(a5)
800022a4:	fe0c98e3          	bnez	s9,80002294 <bf+0x11c>
800022a8:	0c090663          	beqz	s2,80002374 <bf+0x1fc>
800022ac:	00010437          	lui	s0,0x10
800022b0:	00006a97          	auipc	s5,0x6
800022b4:	28ca8a93          	addi	s5,s5,652 # 8000853c <minute+0x3d90>
800022b8:	0000ab97          	auipc	s7,0xa
800022bc:	f84b8b93          	addi	s7,s7,-124 # 8000c23c <x.2>
800022c0:	0000ac97          	auipc	s9,0xa
800022c4:	f80c8c93          	addi	s9,s9,-128 # 8000c240 <y.3>
800022c8:	00006997          	auipc	s3,0x6
800022cc:	42098993          	addi	s3,s3,1056 # 800086e8 <last_c.1>
800022d0:	00009a17          	auipc	s4,0x9
800022d4:	390a0a13          	addi	s4,s4,912 # 8000b660 <buf.0>
800022d8:	00009b17          	auipc	s6,0x9
800022dc:	3c8b0b13          	addi	s6,s6,968 # 8000b6a0 <buf.4>
800022e0:	fff40413          	addi	s0,s0,-1 # ffff <_entry_offset+0xffff>
800022e4:	00094783          	lbu	a5,0(s2)
800022e8:	03200713          	li	a4,50
800022ec:	fd578793          	addi	a5,a5,-43
800022f0:	0ff7f793          	zext.b	a5,a5
800022f4:	06f76c63          	bltu	a4,a5,8000236c <bf+0x1f4>
800022f8:	00279793          	slli	a5,a5,0x2
800022fc:	015787b3          	add	a5,a5,s5
80002300:	0007a783          	lw	a5,0(a5)
80002304:	015787b3          	add	a5,a5,s5
80002308:	00078067          	jr	a5
8000230c:	0199a423          	sw	s9,8(s3)
80002310:	008ca783          	lw	a5,8(s9)
80002314:	000c4403          	lbu	s0,0(s8)
80002318:	013ca423          	sw	s3,8(s9)
8000231c:	00078c93          	mv	s9,a5
80002320:	f65ff06f          	j	80002284 <bf+0x10c>
80002324:	fd540793          	addi	a5,s0,-43
80002328:	0ff7f793          	zext.b	a5,a5
8000232c:	f4fbeae3          	bltu	s7,a5,80002280 <bf+0x108>
80002330:	00fb57b3          	srl	a5,s6,a5
80002334:	0017f793          	andi	a5,a5,1
80002338:	f0079ae3          	bnez	a5,8000224c <bf+0xd4>
8000233c:	000c4403          	lbu	s0,0(s8)
80002340:	f45ff06f          	j	80002284 <bf+0x10c>
80002344:	0199a423          	sw	s9,8(s3)
80002348:	000c4403          	lbu	s0,0(s8)
8000234c:	00098c93          	mv	s9,s3
80002350:	00098a13          	mv	s4,s3
80002354:	f31ff06f          	j	80002284 <bf+0x10c>
80002358:	00098913          	mv	s2,s3
8000235c:	f15ff06f          	j	80002270 <bf+0xf8>
80002360:	0004c783          	lbu	a5,0(s1)
80002364:	00178793          	addi	a5,a5,1
80002368:	00f48023          	sb	a5,0(s1)
8000236c:	00492903          	lw	s2,4(s2)
80002370:	f6091ae3          	bnez	s2,800022e4 <bf+0x16c>
80002374:	04c12083          	lw	ra,76(sp)
80002378:	04812403          	lw	s0,72(sp)
8000237c:	04412483          	lw	s1,68(sp)
80002380:	04012903          	lw	s2,64(sp)
80002384:	03c12983          	lw	s3,60(sp)
80002388:	03812a03          	lw	s4,56(sp)
8000238c:	03412a83          	lw	s5,52(sp)
80002390:	03012b03          	lw	s6,48(sp)
80002394:	02c12b83          	lw	s7,44(sp)
80002398:	02812c03          	lw	s8,40(sp)
8000239c:	02412c83          	lw	s9,36(sp)
800023a0:	02012d03          	lw	s10,32(sp)
800023a4:	05010113          	addi	sp,sp,80
800023a8:	00008067          	ret
800023ac:	0004c783          	lbu	a5,0(s1)
800023b0:	fa078ee3          	beqz	a5,8000236c <bf+0x1f4>
800023b4:	00892903          	lw	s2,8(s2)
800023b8:	00492903          	lw	s2,4(s2)
800023bc:	f20914e3          	bnez	s2,800022e4 <bf+0x16c>
800023c0:	fb5ff06f          	j	80002374 <bf+0x1fc>
800023c4:	0004c783          	lbu	a5,0(s1)
800023c8:	fa0792e3          	bnez	a5,8000236c <bf+0x1f4>
800023cc:	00892903          	lw	s2,8(s2)
800023d0:	fe9ff06f          	j	800023b8 <bf+0x240>
800023d4:	0044a783          	lw	a5,4(s1)
800023d8:	08078863          	beqz	a5,80002468 <bf+0x2f0>
800023dc:	00078493          	mv	s1,a5
800023e0:	00492903          	lw	s2,4(s2)
800023e4:	f00910e3          	bnez	s2,800022e4 <bf+0x16c>
800023e8:	f8dff06f          	j	80002374 <bf+0x1fc>
800023ec:	0084a483          	lw	s1,8(s1)
800023f0:	f6049ee3          	bnez	s1,8000236c <bf+0x1f4>
800023f4:	00006517          	auipc	a0,0x6
800023f8:	13450513          	addi	a0,a0,308 # 80008528 <minute+0x3d7c>
800023fc:	238010ef          	jal	ra,80003634 <printf>
80002400:	00100513          	li	a0,1
80002404:	285000ef          	jal	ra,80002e88 <halt>
80002408:	0004c683          	lbu	a3,0(s1)
8000240c:	00a00793          	li	a5,10
80002410:	08f68263          	beq	a3,a5,80002494 <bf+0x31c>
80002414:	000ba783          	lw	a5,0(s7)
80002418:	0017f713          	andi	a4,a5,1
8000241c:	08070c63          	beqz	a4,800024b4 <bf+0x33c>
80002420:	00492903          	lw	s2,4(s2)
80002424:	00178793          	addi	a5,a5,1
80002428:	00fba023          	sw	a5,0(s7)
8000242c:	ea091ce3          	bnez	s2,800022e4 <bf+0x16c>
80002430:	f45ff06f          	j	80002374 <bf+0x1fc>
80002434:	0004c783          	lbu	a5,0(s1)
80002438:	fff78793          	addi	a5,a5,-1
8000243c:	00f48023          	sb	a5,0(s1)
80002440:	00492903          	lw	s2,4(s2)
80002444:	ea0910e3          	bnez	s2,800022e4 <bf+0x16c>
80002448:	f2dff06f          	j	80002374 <bf+0x1fc>
8000244c:	000c4783          	lbu	a5,0(s8)
80002450:	001c0c13          	addi	s8,s8,1
80002454:	f0078ce3          	beqz	a5,8000236c <bf+0x1f4>
80002458:	00f48023          	sb	a5,0(s1)
8000245c:	00492903          	lw	s2,4(s2)
80002460:	e80912e3          	bnez	s2,800022e4 <bf+0x16c>
80002464:	f11ff06f          	j	80002374 <bf+0x1fc>
80002468:	00c00513          	li	a0,12
8000246c:	5c1000ef          	jal	ra,8000322c <malloc>
80002470:	00a4a223          	sw	a0,4(s1)
80002474:	14050463          	beqz	a0,800025bc <bf+0x444>
80002478:	00c00613          	li	a2,12
8000247c:	00000593          	li	a1,0
80002480:	501000ef          	jal	ra,80003180 <memset>
80002484:	0044a783          	lw	a5,4(s1)
80002488:	0097a423          	sw	s1,8(a5)
8000248c:	00078493          	mv	s1,a5
80002490:	f51ff06f          	j	800023e0 <bf+0x268>
80002494:	000ca783          	lw	a5,0(s9)
80002498:	00492903          	lw	s2,4(s2)
8000249c:	0000a717          	auipc	a4,0xa
800024a0:	da072023          	sw	zero,-608(a4) # 8000c23c <x.2>
800024a4:	00178793          	addi	a5,a5,1
800024a8:	00fca023          	sw	a5,0(s9)
800024ac:	e2091ce3          	bnez	s2,800022e4 <bf+0x16c>
800024b0:	ec5ff06f          	j	80002374 <bf+0x1fc>
800024b4:	0009c503          	lbu	a0,0(s3)
800024b8:	01f7d613          	srli	a2,a5,0x1f
800024bc:	00f60633          	add	a2,a2,a5
800024c0:	000ca583          	lw	a1,0(s9)
800024c4:	40165613          	srai	a2,a2,0x1
800024c8:	08d50a63          	beq	a0,a3,8000255c <bf+0x3e4>
800024cc:	00d98023          	sb	a3,0(s3)
800024d0:	02000793          	li	a5,32
800024d4:	06f68a63          	beq	a3,a5,80002548 <bf+0x3d0>
800024d8:	01900793          	li	a5,25
800024dc:	02f6d7b3          	divu	a5,a3,a5
800024e0:	00500813          	li	a6,5
800024e4:	00379713          	slli	a4,a5,0x3
800024e8:	40f70733          	sub	a4,a4,a5
800024ec:	00571513          	slli	a0,a4,0x5
800024f0:	00a70733          	add	a4,a4,a0
800024f4:	00e686b3          	add	a3,a3,a4
800024f8:	0ff6f693          	zext.b	a3,a3
800024fc:	0306d533          	divu	a0,a3,a6
80002500:	00879713          	slli	a4,a5,0x8
80002504:	00251793          	slli	a5,a0,0x2
80002508:	00f507b3          	add	a5,a0,a5
8000250c:	40f687b3          	sub	a5,a3,a5
80002510:	00851513          	slli	a0,a0,0x8
80002514:	030546b3          	div	a3,a0,a6
80002518:	0ff7f793          	zext.b	a5,a5
8000251c:	00879793          	slli	a5,a5,0x8
80002520:	00ff0537          	lui	a0,0xff0
80002524:	03074733          	div	a4,a4,a6
80002528:	00869693          	slli	a3,a3,0x8
8000252c:	0086f6b3          	and	a3,a3,s0
80002530:	0307c7b3          	div	a5,a5,a6
80002534:	01071713          	slli	a4,a4,0x10
80002538:	00a77733          	and	a4,a4,a0
8000253c:	00d76733          	or	a4,a4,a3
80002540:	0ff7f793          	zext.b	a5,a5
80002544:	00f76733          	or	a4,a4,a5
80002548:	00009797          	auipc	a5,0x9
8000254c:	11878793          	addi	a5,a5,280 # 8000b660 <buf.0>
80002550:	00e7a023          	sw	a4,0(a5)
80002554:	00478793          	addi	a5,a5,4
80002558:	ff679ce3          	bne	a5,s6,80002550 <bf+0x3d8>
8000255c:	00259713          	slli	a4,a1,0x2
80002560:	00400793          	li	a5,4
80002564:	00261613          	slli	a2,a2,0x2
80002568:	00810593          	addi	a1,sp,8
8000256c:	00b00513          	li	a0,11
80002570:	00c12423          	sw	a2,8(sp)
80002574:	00e12623          	sw	a4,12(sp)
80002578:	00f12a23          	sw	a5,20(sp)
8000257c:	00f12c23          	sw	a5,24(sp)
80002580:	01412823          	sw	s4,16(sp)
80002584:	00010e23          	sb	zero,28(sp)
80002588:	239000ef          	jal	ra,80002fc0 <ioe_write>
8000258c:	00100793          	li	a5,1
80002590:	00810593          	addi	a1,sp,8
80002594:	00b00513          	li	a0,11
80002598:	00f10e23          	sb	a5,28(sp)
8000259c:	00012423          	sw	zero,8(sp)
800025a0:	00012623          	sw	zero,12(sp)
800025a4:	00012823          	sw	zero,16(sp)
800025a8:	00012a23          	sw	zero,20(sp)
800025ac:	00012c23          	sw	zero,24(sp)
800025b0:	211000ef          	jal	ra,80002fc0 <ioe_write>
800025b4:	000ba783          	lw	a5,0(s7)
800025b8:	e69ff06f          	j	80002420 <bf+0x2a8>
800025bc:	00006517          	auipc	a0,0x6
800025c0:	f5050513          	addi	a0,a0,-176 # 8000850c <minute+0x3d60>
800025c4:	070010ef          	jal	ra,80003634 <printf>
800025c8:	00100513          	li	a0,1
800025cc:	0bd000ef          	jal	ra,80002e88 <halt>

800025d0 <cmatrix>:
800025d0:	f7010113          	addi	sp,sp,-144
800025d4:	08812423          	sw	s0,136(sp)
800025d8:	08912223          	sw	s1,132(sp)
800025dc:	09212023          	sw	s2,128(sp)
800025e0:	07312e23          	sw	s3,124(sp)
800025e4:	07412c23          	sw	s4,120(sp)
800025e8:	08112623          	sw	ra,140(sp)
800025ec:	07512a23          	sw	s5,116(sp)
800025f0:	07612823          	sw	s6,112(sp)
800025f4:	07712623          	sw	s7,108(sp)
800025f8:	07812423          	sw	s8,104(sp)
800025fc:	07912223          	sw	s9,100(sp)
80002600:	07a12023          	sw	s10,96(sp)
80002604:	05b12e23          	sw	s11,92(sp)
80002608:	00000413          	li	s0,0
8000260c:	00009a17          	auipc	s4,0x9
80002610:	5d4a0a13          	addi	s4,s4,1492 # 8000bbe0 <buf.2>
80002614:	14000993          	li	s3,320
80002618:	00100913          	li	s2,1
8000261c:	0c800493          	li	s1,200
80002620:	02812e23          	sw	s0,60(sp)
80002624:	03810593          	addi	a1,sp,56
80002628:	00140413          	addi	s0,s0,1
8000262c:	00b00513          	li	a0,11
80002630:	02012c23          	sw	zero,56(sp)
80002634:	05412023          	sw	s4,64(sp)
80002638:	05312223          	sw	s3,68(sp)
8000263c:	05212423          	sw	s2,72(sp)
80002640:	04010623          	sb	zero,76(sp)
80002644:	17d000ef          	jal	ra,80002fc0 <ioe_write>
80002648:	fc941ce3          	bne	s0,s1,80002620 <cmatrix+0x50>
8000264c:	3ad000ef          	jal	ra,800031f8 <rand>
80002650:	00050413          	mv	s0,a0
80002654:	0000a497          	auipc	s1,0xa
80002658:	a8c48493          	addi	s1,s1,-1396 # 8000c0e0 <t>
8000265c:	0000a997          	auipc	s3,0xa
80002660:	bc498993          	addi	s3,s3,-1084 # 8000c220 <pix>
80002664:	03200913          	li	s2,50
80002668:	391000ef          	jal	ra,800031f8 <rand>
8000266c:	40a007b3          	neg	a5,a0
80002670:	0327e7b3          	rem	a5,a5,s2
80002674:	00448493          	addi	s1,s1,4
80002678:	fef4ae23          	sw	a5,-4(s1)
8000267c:	ff3496e3          	bne	s1,s3,80002668 <cmatrix+0x98>
80002680:	00006d17          	auipc	s10,0x6
80002684:	069d0d13          	addi	s10,s10,105 # 800086e9 <last_c.1>
80002688:	000d4703          	lbu	a4,0(s10)
8000268c:	02700793          	li	a5,39
80002690:	00009c97          	auipc	s9,0x9
80002694:	510c8c93          	addi	s9,s9,1296 # 8000bba0 <buf.0>
80002698:	7cf70c63          	beq	a4,a5,80002e70 <cmatrix+0x8a0>
8000269c:	003366b7          	lui	a3,0x336
800026a0:	00fd0023          	sb	a5,0(s10)
800026a4:	000c8713          	mv	a4,s9
800026a8:	00009d97          	auipc	s11,0x9
800026ac:	538d8d93          	addi	s11,s11,1336 # 8000bbe0 <buf.2>
800026b0:	6cc68693          	addi	a3,a3,1740 # 3366cc <_entry_offset+0x3366cc>
800026b4:	00d72023          	sw	a3,0(a4)
800026b8:	00470713          	addi	a4,a4,4
800026bc:	feed9ce3          	bne	s11,a4,800026b4 <cmatrix+0xe4>
800026c0:	02800693          	li	a3,40
800026c4:	00400713          	li	a4,4
800026c8:	03810593          	addi	a1,sp,56
800026cc:	00b00513          	li	a0,11
800026d0:	02d12c23          	sw	a3,56(sp)
800026d4:	02d12e23          	sw	a3,60(sp)
800026d8:	04e12223          	sw	a4,68(sp)
800026dc:	04e12423          	sw	a4,72(sp)
800026e0:	05912023          	sw	s9,64(sp)
800026e4:	04010623          	sb	zero,76(sp)
800026e8:	0d9000ef          	jal	ra,80002fc0 <ioe_write>
800026ec:	00240693          	addi	a3,s0,2
800026f0:	00a40713          	addi	a4,s0,10
800026f4:	41f6d813          	srai	a6,a3,0x1f
800026f8:	00b40413          	addi	s0,s0,11
800026fc:	41f75513          	srai	a0,a4,0x1f
80002700:	01c85813          	srli	a6,a6,0x1c
80002704:	01c55513          	srli	a0,a0,0x1c
80002708:	01068633          	add	a2,a3,a6
8000270c:	41f45593          	srai	a1,s0,0x1f
80002710:	01c5d593          	srli	a1,a1,0x1c
80002714:	00a706b3          	add	a3,a4,a0
80002718:	00f67613          	andi	a2,a2,15
8000271c:	00b40733          	add	a4,s0,a1
80002720:	00f6f693          	andi	a3,a3,15
80002724:	41060633          	sub	a2,a2,a6
80002728:	00f77713          	andi	a4,a4,15
8000272c:	40a686b3          	sub	a3,a3,a0
80002730:	00461613          	slli	a2,a2,0x4
80002734:	0ff67793          	zext.b	a5,a2
80002738:	40b70733          	sub	a4,a4,a1
8000273c:	00469693          	slli	a3,a3,0x4
80002740:	00471713          	slli	a4,a4,0x4
80002744:	02f12223          	sw	a5,36(sp)
80002748:	0ff6f793          	zext.b	a5,a3
8000274c:	02f12023          	sw	a5,32(sp)
80002750:	0ff77793          	zext.b	a5,a4
80002754:	00010737          	lui	a4,0x10
80002758:	02f12423          	sw	a5,40(sp)
8000275c:	fff70793          	addi	a5,a4,-1 # ffff <_entry_offset+0xffff>
80002760:	00018737          	lui	a4,0x18
80002764:	00f12e23          	sw	a5,28(sp)
80002768:	6a070793          	addi	a5,a4,1696 # 186a0 <_entry_offset+0x186a0>
8000276c:	01700b13          	li	s6,23
80002770:	02f12623          	sw	a5,44(sp)
80002774:	000c8b93          	mv	s7,s9
80002778:	04f00913          	li	s2,79
8000277c:	02000993          	li	s3,32
80002780:	000d8c13          	mv	s8,s11
80002784:	275000ef          	jal	ra,800031f8 <rand>
80002788:	04f00793          	li	a5,79
8000278c:	02f56433          	rem	s0,a0,a5
80002790:	0000a797          	auipc	a5,0xa
80002794:	95078793          	addi	a5,a5,-1712 # 8000c0e0 <t>
80002798:	00241d93          	slli	s11,s0,0x2
8000279c:	01b78733          	add	a4,a5,s11
800027a0:	00072c83          	lw	s9,0(a4)
800027a4:	01c00793          	li	a5,28
800027a8:	2597d863          	bge	a5,s9,800029f8 <cmatrix+0x428>
800027ac:	fff00793          	li	a5,-1
800027b0:	00f12823          	sw	a5,16(sp)
800027b4:	00100793          	li	a5,1
800027b8:	00100693          	li	a3,1
800027bc:	00f12223          	sw	a5,4(sp)
800027c0:	ffe00793          	li	a5,-2
800027c4:	00d72023          	sw	a3,0(a4)
800027c8:	fff00a93          	li	s5,-1
800027cc:	00f12623          	sw	a5,12(sp)
800027d0:	00100493          	li	s1,1
800027d4:	00000c93          	li	s9,0
800027d8:	ffe00a13          	li	s4,-2
800027dc:	00012423          	sw	zero,8(sp)
800027e0:	0f4b7063          	bgeu	s6,s4,800028c0 <cmatrix+0x2f0>
800027e4:	155b7263          	bgeu	s6,s5,80002928 <cmatrix+0x358>
800027e8:	00812783          	lw	a5,8(sp)
800027ec:	1afb7463          	bgeu	s6,a5,80002994 <cmatrix+0x3c4>
800027f0:	00412783          	lw	a5,4(sp)
800027f4:	04fb6863          	bltu	s6,a5,80002844 <cmatrix+0x274>
800027f8:	000d4703          	lbu	a4,0(s10)
800027fc:	01370e63          	beq	a4,s3,80002818 <cmatrix+0x248>
80002800:	013d0023          	sb	s3,0(s10)
80002804:	00009717          	auipc	a4,0x9
80002808:	39c70713          	addi	a4,a4,924 # 8000bba0 <buf.0>
8000280c:	00072023          	sw	zero,0(a4)
80002810:	00470713          	addi	a4,a4,4
80002814:	ff871ce3          	bne	a4,s8,8000280c <cmatrix+0x23c>
80002818:	00400713          	li	a4,4
8000281c:	00249493          	slli	s1,s1,0x2
80002820:	03810593          	addi	a1,sp,56
80002824:	00b00513          	li	a0,11
80002828:	03b12c23          	sw	s11,56(sp)
8000282c:	02912e23          	sw	s1,60(sp)
80002830:	05712023          	sw	s7,64(sp)
80002834:	04e12223          	sw	a4,68(sp)
80002838:	04e12423          	sw	a4,72(sp)
8000283c:	04010623          	sb	zero,76(sp)
80002840:	780000ef          	jal	ra,80002fc0 <ioe_write>
80002844:	fff90913          	addi	s2,s2,-1
80002848:	f2091ee3          	bnez	s2,80002784 <cmatrix+0x1b4>
8000284c:	00100713          	li	a4,1
80002850:	00b00513          	li	a0,11
80002854:	03810593          	addi	a1,sp,56
80002858:	04e10623          	sb	a4,76(sp)
8000285c:	02012c23          	sw	zero,56(sp)
80002860:	02012e23          	sw	zero,60(sp)
80002864:	04012023          	sw	zero,64(sp)
80002868:	04012223          	sw	zero,68(sp)
8000286c:	04012423          	sw	zero,72(sp)
80002870:	750000ef          	jal	ra,80002fc0 <ioe_write>
80002874:	03810593          	addi	a1,sp,56
80002878:	00600513          	li	a0,6
8000287c:	728000ef          	jal	ra,80002fa4 <ioe_read>
80002880:	03812703          	lw	a4,56(sp)
80002884:	02c12783          	lw	a5,44(sp)
80002888:	03c12683          	lw	a3,60(sp)
8000288c:	000c0d93          	mv	s11,s8
80002890:	00f704b3          	add	s1,a4,a5
80002894:	00e4b733          	sltu	a4,s1,a4
80002898:	00d70433          	add	s0,a4,a3
8000289c:	03810593          	addi	a1,sp,56
800028a0:	00600513          	li	a0,6
800028a4:	700000ef          	jal	ra,80002fa4 <ioe_read>
800028a8:	03c12783          	lw	a5,60(sp)
800028ac:	03812703          	lw	a4,56(sp)
800028b0:	fe87e6e3          	bltu	a5,s0,8000289c <cmatrix+0x2cc>
800028b4:	ecf412e3          	bne	s0,a5,80002778 <cmatrix+0x1a8>
800028b8:	fe9762e3          	bltu	a4,s1,8000289c <cmatrix+0x2cc>
800028bc:	ebdff06f          	j	80002778 <cmatrix+0x1a8>
800028c0:	02012783          	lw	a5,32(sp)
800028c4:	00900693          	li	a3,9
800028c8:	000d4703          	lbu	a4,0(s10)
800028cc:	4ef6e263          	bltu	a3,a5,80002db0 <cmatrix+0x7e0>
800028d0:	02000513          	li	a0,32
800028d4:	00000613          	li	a2,0
800028d8:	01370e63          	beq	a4,s3,800028f4 <cmatrix+0x324>
800028dc:	00ad0023          	sb	a0,0(s10)
800028e0:	00009717          	auipc	a4,0x9
800028e4:	2c070713          	addi	a4,a4,704 # 8000bba0 <buf.0>
800028e8:	00c72023          	sw	a2,0(a4)
800028ec:	00470713          	addi	a4,a4,4
800028f0:	feec1ce3          	bne	s8,a4,800028e8 <cmatrix+0x318>
800028f4:	00c12783          	lw	a5,12(sp)
800028f8:	00400713          	li	a4,4
800028fc:	03810593          	addi	a1,sp,56
80002900:	00279a13          	slli	s4,a5,0x2
80002904:	00b00513          	li	a0,11
80002908:	03b12c23          	sw	s11,56(sp)
8000290c:	03412e23          	sw	s4,60(sp)
80002910:	05712023          	sw	s7,64(sp)
80002914:	04e12223          	sw	a4,68(sp)
80002918:	04e12423          	sw	a4,72(sp)
8000291c:	04010623          	sb	zero,76(sp)
80002920:	6a0000ef          	jal	ra,80002fc0 <ioe_write>
80002924:	ed5b62e3          	bltu	s6,s5,800027e8 <cmatrix+0x218>
80002928:	02012783          	lw	a5,32(sp)
8000292c:	00900693          	li	a3,9
80002930:	000d4703          	lbu	a4,0(s10)
80002934:	22f6e263          	bltu	a3,a5,80002b58 <cmatrix+0x588>
80002938:	02000513          	li	a0,32
8000293c:	00000613          	li	a2,0
80002940:	01370e63          	beq	a4,s3,8000295c <cmatrix+0x38c>
80002944:	00ad0023          	sb	a0,0(s10)
80002948:	00009717          	auipc	a4,0x9
8000294c:	25870713          	addi	a4,a4,600 # 8000bba0 <buf.0>
80002950:	00c72023          	sw	a2,0(a4)
80002954:	00470713          	addi	a4,a4,4
80002958:	ff871ce3          	bne	a4,s8,80002950 <cmatrix+0x380>
8000295c:	01012783          	lw	a5,16(sp)
80002960:	00400713          	li	a4,4
80002964:	03810593          	addi	a1,sp,56
80002968:	00279a93          	slli	s5,a5,0x2
8000296c:	00b00513          	li	a0,11
80002970:	03b12c23          	sw	s11,56(sp)
80002974:	03512e23          	sw	s5,60(sp)
80002978:	05712023          	sw	s7,64(sp)
8000297c:	04e12223          	sw	a4,68(sp)
80002980:	04e12423          	sw	a4,72(sp)
80002984:	04010623          	sb	zero,76(sp)
80002988:	638000ef          	jal	ra,80002fc0 <ioe_write>
8000298c:	00812783          	lw	a5,8(sp)
80002990:	e6fb60e3          	bltu	s6,a5,800027f0 <cmatrix+0x220>
80002994:	02812783          	lw	a5,40(sp)
80002998:	00900693          	li	a3,9
8000299c:	000d4703          	lbu	a4,0(s10)
800029a0:	24f6e863          	bltu	a3,a5,80002bf0 <cmatrix+0x620>
800029a4:	02000513          	li	a0,32
800029a8:	00000613          	li	a2,0
800029ac:	01370e63          	beq	a4,s3,800029c8 <cmatrix+0x3f8>
800029b0:	00ad0023          	sb	a0,0(s10)
800029b4:	00009717          	auipc	a4,0x9
800029b8:	1ec70713          	addi	a4,a4,492 # 8000bba0 <buf.0>
800029bc:	00c72023          	sw	a2,0(a4)
800029c0:	00470713          	addi	a4,a4,4
800029c4:	feec1ce3          	bne	s8,a4,800029bc <cmatrix+0x3ec>
800029c8:	00400713          	li	a4,4
800029cc:	002c9693          	slli	a3,s9,0x2
800029d0:	03810593          	addi	a1,sp,56
800029d4:	00b00513          	li	a0,11
800029d8:	03b12c23          	sw	s11,56(sp)
800029dc:	02d12e23          	sw	a3,60(sp)
800029e0:	05712023          	sw	s7,64(sp)
800029e4:	04e12223          	sw	a4,68(sp)
800029e8:	04e12423          	sw	a4,72(sp)
800029ec:	04010623          	sb	zero,76(sp)
800029f0:	5d0000ef          	jal	ra,80002fc0 <ioe_write>
800029f4:	dfdff06f          	j	800027f0 <cmatrix+0x220>
800029f8:	001c8493          	addi	s1,s9,1
800029fc:	ffec8a13          	addi	s4,s9,-2
80002a00:	fffc8a93          	addi	s5,s9,-1
80002a04:	ffdc8793          	addi	a5,s9,-3
80002a08:	01412623          	sw	s4,12(sp)
80002a0c:	01512823          	sw	s5,16(sp)
80002a10:	00972023          	sw	s1,0(a4)
80002a14:	ffbc8613          	addi	a2,s9,-5
80002a18:	00f12a23          	sw	a5,20(sp)
80002a1c:	01912423          	sw	s9,8(sp)
80002a20:	00912223          	sw	s1,4(sp)
80002a24:	ffcc8313          	addi	t1,s9,-4
80002a28:	04cb6c63          	bltu	s6,a2,80002a80 <cmatrix+0x4b0>
80002a2c:	000d4703          	lbu	a4,0(s10)
80002a30:	01370e63          	beq	a4,s3,80002a4c <cmatrix+0x47c>
80002a34:	013d0023          	sb	s3,0(s10)
80002a38:	00009717          	auipc	a4,0x9
80002a3c:	16870713          	addi	a4,a4,360 # 8000bba0 <buf.0>
80002a40:	00072023          	sw	zero,0(a4)
80002a44:	00470713          	addi	a4,a4,4
80002a48:	feec1ce3          	bne	s8,a4,80002a40 <cmatrix+0x470>
80002a4c:	00400713          	li	a4,4
80002a50:	00261613          	slli	a2,a2,0x2
80002a54:	03810593          	addi	a1,sp,56
80002a58:	00b00513          	li	a0,11
80002a5c:	00612c23          	sw	t1,24(sp)
80002a60:	03b12c23          	sw	s11,56(sp)
80002a64:	02c12e23          	sw	a2,60(sp)
80002a68:	05712023          	sw	s7,64(sp)
80002a6c:	04e12223          	sw	a4,68(sp)
80002a70:	04e12423          	sw	a4,72(sp)
80002a74:	04010623          	sb	zero,76(sp)
80002a78:	548000ef          	jal	ra,80002fc0 <ioe_write>
80002a7c:	01812303          	lw	t1,24(sp)
80002a80:	066b6263          	bltu	s6,t1,80002ae4 <cmatrix+0x514>
80002a84:	02412783          	lw	a5,36(sp)
80002a88:	00900693          	li	a3,9
80002a8c:	000d4703          	lbu	a4,0(s10)
80002a90:	1ef6ea63          	bltu	a3,a5,80002c84 <cmatrix+0x6b4>
80002a94:	02000513          	li	a0,32
80002a98:	00000613          	li	a2,0
80002a9c:	01370e63          	beq	a4,s3,80002ab8 <cmatrix+0x4e8>
80002aa0:	00ad0023          	sb	a0,0(s10)
80002aa4:	00009717          	auipc	a4,0x9
80002aa8:	0fc70713          	addi	a4,a4,252 # 8000bba0 <buf.0>
80002aac:	00c72023          	sw	a2,0(a4)
80002ab0:	00470713          	addi	a4,a4,4
80002ab4:	ff871ce3          	bne	a4,s8,80002aac <cmatrix+0x4dc>
80002ab8:	00400713          	li	a4,4
80002abc:	00231313          	slli	t1,t1,0x2
80002ac0:	03810593          	addi	a1,sp,56
80002ac4:	00b00513          	li	a0,11
80002ac8:	03b12c23          	sw	s11,56(sp)
80002acc:	02612e23          	sw	t1,60(sp)
80002ad0:	05712023          	sw	s7,64(sp)
80002ad4:	04e12223          	sw	a4,68(sp)
80002ad8:	04e12423          	sw	a4,72(sp)
80002adc:	04010623          	sb	zero,76(sp)
80002ae0:	4e0000ef          	jal	ra,80002fc0 <ioe_write>
80002ae4:	01412783          	lw	a5,20(sp)
80002ae8:	cefb6ce3          	bltu	s6,a5,800027e0 <cmatrix+0x210>
80002aec:	02412783          	lw	a5,36(sp)
80002af0:	00900693          	li	a3,9
80002af4:	000d4703          	lbu	a4,0(s10)
80002af8:	22f6e063          	bltu	a3,a5,80002d18 <cmatrix+0x748>
80002afc:	02000513          	li	a0,32
80002b00:	00000613          	li	a2,0
80002b04:	01370e63          	beq	a4,s3,80002b20 <cmatrix+0x550>
80002b08:	00ad0023          	sb	a0,0(s10)
80002b0c:	00009717          	auipc	a4,0x9
80002b10:	09470713          	addi	a4,a4,148 # 8000bba0 <buf.0>
80002b14:	00c72023          	sw	a2,0(a4)
80002b18:	00470713          	addi	a4,a4,4
80002b1c:	feec1ce3          	bne	s8,a4,80002b14 <cmatrix+0x544>
80002b20:	01412783          	lw	a5,20(sp)
80002b24:	00400713          	li	a4,4
80002b28:	03810593          	addi	a1,sp,56
80002b2c:	00279613          	slli	a2,a5,0x2
80002b30:	00b00513          	li	a0,11
80002b34:	03b12c23          	sw	s11,56(sp)
80002b38:	02c12e23          	sw	a2,60(sp)
80002b3c:	05712023          	sw	s7,64(sp)
80002b40:	04e12223          	sw	a4,68(sp)
80002b44:	04e12423          	sw	a4,72(sp)
80002b48:	04010623          	sb	zero,76(sp)
80002b4c:	474000ef          	jal	ra,80002fc0 <ioe_write>
80002b50:	c94b6ae3          	bltu	s6,s4,800027e4 <cmatrix+0x214>
80002b54:	d6dff06f          	j	800028c0 <cmatrix+0x2f0>
80002b58:	01012783          	lw	a5,16(sp)
80002b5c:	02f40533          	mul	a0,s0,a5
80002b60:	05e00793          	li	a5,94
80002b64:	02f56533          	rem	a0,a0,a5
80002b68:	02150513          	addi	a0,a0,33
80002b6c:	0ff57513          	zext.b	a0,a0
80002b70:	dee506e3          	beq	a0,a4,8000295c <cmatrix+0x38c>
80002b74:	2d350a63          	beq	a0,s3,80002e48 <cmatrix+0x878>
80002b78:	01900713          	li	a4,25
80002b7c:	02e55733          	divu	a4,a0,a4
80002b80:	00500893          	li	a7,5
80002b84:	01c12783          	lw	a5,28(sp)
80002b88:	00371613          	slli	a2,a4,0x3
80002b8c:	40e60633          	sub	a2,a2,a4
80002b90:	00561593          	slli	a1,a2,0x5
80002b94:	00b605b3          	add	a1,a2,a1
80002b98:	00b505b3          	add	a1,a0,a1
80002b9c:	0ff5f593          	zext.b	a1,a1
80002ba0:	0315d333          	divu	t1,a1,a7
80002ba4:	00871613          	slli	a2,a4,0x8
80002ba8:	00231713          	slli	a4,t1,0x2
80002bac:	00e30733          	add	a4,t1,a4
80002bb0:	40e58733          	sub	a4,a1,a4
80002bb4:	00831313          	slli	t1,t1,0x8
80002bb8:	031345b3          	div	a1,t1,a7
80002bbc:	0ff77713          	zext.b	a4,a4
80002bc0:	00871713          	slli	a4,a4,0x8
80002bc4:	00ff0337          	lui	t1,0xff0
80002bc8:	03164633          	div	a2,a2,a7
80002bcc:	00859593          	slli	a1,a1,0x8
80002bd0:	00f5f5b3          	and	a1,a1,a5
80002bd4:	03174733          	div	a4,a4,a7
80002bd8:	01061613          	slli	a2,a2,0x10
80002bdc:	00667633          	and	a2,a2,t1
80002be0:	00b66633          	or	a2,a2,a1
80002be4:	0ff77713          	zext.b	a4,a4
80002be8:	00e66633          	or	a2,a2,a4
80002bec:	d59ff06f          	j	80002944 <cmatrix+0x374>
80002bf0:	03940533          	mul	a0,s0,s9
80002bf4:	05e00793          	li	a5,94
80002bf8:	02f56533          	rem	a0,a0,a5
80002bfc:	02150513          	addi	a0,a0,33
80002c00:	0ff57513          	zext.b	a0,a0
80002c04:	dce502e3          	beq	a0,a4,800029c8 <cmatrix+0x3f8>
80002c08:	25350463          	beq	a0,s3,80002e50 <cmatrix+0x880>
80002c0c:	01900713          	li	a4,25
80002c10:	02e55733          	divu	a4,a0,a4
80002c14:	00500893          	li	a7,5
80002c18:	01c12783          	lw	a5,28(sp)
80002c1c:	00371613          	slli	a2,a4,0x3
80002c20:	40e60633          	sub	a2,a2,a4
80002c24:	00561593          	slli	a1,a2,0x5
80002c28:	00b605b3          	add	a1,a2,a1
80002c2c:	00b505b3          	add	a1,a0,a1
80002c30:	0ff5f593          	zext.b	a1,a1
80002c34:	0315d333          	divu	t1,a1,a7
80002c38:	00871613          	slli	a2,a4,0x8
80002c3c:	00231713          	slli	a4,t1,0x2
80002c40:	00e30733          	add	a4,t1,a4
80002c44:	40e58733          	sub	a4,a1,a4
80002c48:	00831313          	slli	t1,t1,0x8
80002c4c:	031345b3          	div	a1,t1,a7
80002c50:	0ff77713          	zext.b	a4,a4
80002c54:	00871713          	slli	a4,a4,0x8
80002c58:	00ff0337          	lui	t1,0xff0
80002c5c:	03164633          	div	a2,a2,a7
80002c60:	00859593          	slli	a1,a1,0x8
80002c64:	00f5f5b3          	and	a1,a1,a5
80002c68:	03174733          	div	a4,a4,a7
80002c6c:	01061613          	slli	a2,a2,0x10
80002c70:	00667633          	and	a2,a2,t1
80002c74:	00b66633          	or	a2,a2,a1
80002c78:	0ff77713          	zext.b	a4,a4
80002c7c:	00e66633          	or	a2,a2,a4
80002c80:	d31ff06f          	j	800029b0 <cmatrix+0x3e0>
80002c84:	02640533          	mul	a0,s0,t1
80002c88:	05e00793          	li	a5,94
80002c8c:	02f56533          	rem	a0,a0,a5
80002c90:	02150513          	addi	a0,a0,33
80002c94:	0ff57513          	zext.b	a0,a0
80002c98:	e2e500e3          	beq	a0,a4,80002ab8 <cmatrix+0x4e8>
80002c9c:	1d350263          	beq	a0,s3,80002e60 <cmatrix+0x890>
80002ca0:	01900713          	li	a4,25
80002ca4:	02e55733          	divu	a4,a0,a4
80002ca8:	00500e13          	li	t3,5
80002cac:	01c12783          	lw	a5,28(sp)
80002cb0:	00371613          	slli	a2,a4,0x3
80002cb4:	40e60633          	sub	a2,a2,a4
80002cb8:	00561593          	slli	a1,a2,0x5
80002cbc:	00b605b3          	add	a1,a2,a1
80002cc0:	00b505b3          	add	a1,a0,a1
80002cc4:	0ff5f593          	zext.b	a1,a1
80002cc8:	03c5deb3          	divu	t4,a1,t3
80002ccc:	00871613          	slli	a2,a4,0x8
80002cd0:	002e9713          	slli	a4,t4,0x2
80002cd4:	00ee8733          	add	a4,t4,a4
80002cd8:	40e58733          	sub	a4,a1,a4
80002cdc:	008e9e93          	slli	t4,t4,0x8
80002ce0:	03cec5b3          	div	a1,t4,t3
80002ce4:	0ff77713          	zext.b	a4,a4
80002ce8:	00871713          	slli	a4,a4,0x8
80002cec:	00ff0eb7          	lui	t4,0xff0
80002cf0:	03c64633          	div	a2,a2,t3
80002cf4:	00859593          	slli	a1,a1,0x8
80002cf8:	00f5f5b3          	and	a1,a1,a5
80002cfc:	03c74733          	div	a4,a4,t3
80002d00:	01061613          	slli	a2,a2,0x10
80002d04:	01d67633          	and	a2,a2,t4
80002d08:	00b66633          	or	a2,a2,a1
80002d0c:	0ff77713          	zext.b	a4,a4
80002d10:	00e66633          	or	a2,a2,a4
80002d14:	d8dff06f          	j	80002aa0 <cmatrix+0x4d0>
80002d18:	01412783          	lw	a5,20(sp)
80002d1c:	02f40533          	mul	a0,s0,a5
80002d20:	05e00793          	li	a5,94
80002d24:	02f56533          	rem	a0,a0,a5
80002d28:	02150513          	addi	a0,a0,33
80002d2c:	0ff57513          	zext.b	a0,a0
80002d30:	dee508e3          	beq	a0,a4,80002b20 <cmatrix+0x550>
80002d34:	13350263          	beq	a0,s3,80002e58 <cmatrix+0x888>
80002d38:	01900713          	li	a4,25
80002d3c:	02e55733          	divu	a4,a0,a4
80002d40:	00500313          	li	t1,5
80002d44:	01c12783          	lw	a5,28(sp)
80002d48:	00371613          	slli	a2,a4,0x3
80002d4c:	40e60633          	sub	a2,a2,a4
80002d50:	00561593          	slli	a1,a2,0x5
80002d54:	00b605b3          	add	a1,a2,a1
80002d58:	00b505b3          	add	a1,a0,a1
80002d5c:	0ff5f593          	zext.b	a1,a1
80002d60:	0265de33          	divu	t3,a1,t1
80002d64:	00871613          	slli	a2,a4,0x8
80002d68:	002e1713          	slli	a4,t3,0x2
80002d6c:	00ee0733          	add	a4,t3,a4
80002d70:	40e58733          	sub	a4,a1,a4
80002d74:	008e1e13          	slli	t3,t3,0x8
80002d78:	026e45b3          	div	a1,t3,t1
80002d7c:	0ff77713          	zext.b	a4,a4
80002d80:	00871713          	slli	a4,a4,0x8
80002d84:	00ff0e37          	lui	t3,0xff0
80002d88:	02664633          	div	a2,a2,t1
80002d8c:	00859593          	slli	a1,a1,0x8
80002d90:	00f5f5b3          	and	a1,a1,a5
80002d94:	02674733          	div	a4,a4,t1
80002d98:	01061613          	slli	a2,a2,0x10
80002d9c:	01c67633          	and	a2,a2,t3
80002da0:	00b66633          	or	a2,a2,a1
80002da4:	0ff77713          	zext.b	a4,a4
80002da8:	00e66633          	or	a2,a2,a4
80002dac:	d5dff06f          	j	80002b08 <cmatrix+0x538>
80002db0:	00c12783          	lw	a5,12(sp)
80002db4:	02f40533          	mul	a0,s0,a5
80002db8:	05e00793          	li	a5,94
80002dbc:	02f56533          	rem	a0,a0,a5
80002dc0:	02150513          	addi	a0,a0,33
80002dc4:	0ff57513          	zext.b	a0,a0
80002dc8:	b2e506e3          	beq	a0,a4,800028f4 <cmatrix+0x324>
80002dcc:	09350e63          	beq	a0,s3,80002e68 <cmatrix+0x898>
80002dd0:	01900713          	li	a4,25
80002dd4:	02e55733          	divu	a4,a0,a4
80002dd8:	00500893          	li	a7,5
80002ddc:	01c12783          	lw	a5,28(sp)
80002de0:	00371613          	slli	a2,a4,0x3
80002de4:	40e60633          	sub	a2,a2,a4
80002de8:	00561593          	slli	a1,a2,0x5
80002dec:	00b605b3          	add	a1,a2,a1
80002df0:	00b505b3          	add	a1,a0,a1
80002df4:	0ff5f593          	zext.b	a1,a1
80002df8:	0315d333          	divu	t1,a1,a7
80002dfc:	00871613          	slli	a2,a4,0x8
80002e00:	00231713          	slli	a4,t1,0x2
80002e04:	00e30733          	add	a4,t1,a4
80002e08:	40e58733          	sub	a4,a1,a4
80002e0c:	00831313          	slli	t1,t1,0x8
80002e10:	031345b3          	div	a1,t1,a7
80002e14:	0ff77713          	zext.b	a4,a4
80002e18:	00871713          	slli	a4,a4,0x8
80002e1c:	00ff0337          	lui	t1,0xff0
80002e20:	03164633          	div	a2,a2,a7
80002e24:	00859593          	slli	a1,a1,0x8
80002e28:	00f5f5b3          	and	a1,a1,a5
80002e2c:	03174733          	div	a4,a4,a7
80002e30:	01061613          	slli	a2,a2,0x10
80002e34:	00667633          	and	a2,a2,t1
80002e38:	00b66633          	or	a2,a2,a1
80002e3c:	0ff77713          	zext.b	a4,a4
80002e40:	00e66633          	or	a2,a2,a4
80002e44:	a99ff06f          	j	800028dc <cmatrix+0x30c>
80002e48:	00000613          	li	a2,0
80002e4c:	af9ff06f          	j	80002944 <cmatrix+0x374>
80002e50:	00000613          	li	a2,0
80002e54:	b5dff06f          	j	800029b0 <cmatrix+0x3e0>
80002e58:	00000613          	li	a2,0
80002e5c:	cadff06f          	j	80002b08 <cmatrix+0x538>
80002e60:	00000613          	li	a2,0
80002e64:	c3dff06f          	j	80002aa0 <cmatrix+0x4d0>
80002e68:	00000613          	li	a2,0
80002e6c:	a71ff06f          	j	800028dc <cmatrix+0x30c>
80002e70:	00009d97          	auipc	s11,0x9
80002e74:	d70d8d93          	addi	s11,s11,-656 # 8000bbe0 <buf.2>
80002e78:	849ff06f          	j	800026c0 <cmatrix+0xf0>

80002e7c <putch>:
80002e7c:	a00007b7          	lui	a5,0xa0000
80002e80:	3ea78c23          	sb	a0,1016(a5) # a00003f8 <_end+0x1ffeb3f8>
80002e84:	00008067          	ret

80002e88 <halt>:
80002e88:	00050513          	mv	a0,a0
80002e8c:	00100073          	ebreak
80002e90:	0000006f          	j	80002e90 <halt+0x8>

80002e94 <_trm_init>:
80002e94:	ff010113          	addi	sp,sp,-16
80002e98:	00006517          	auipc	a0,0x6
80002e9c:	84050513          	addi	a0,a0,-1984 # 800086d8 <mainargs>
80002ea0:	00112623          	sw	ra,12(sp)
80002ea4:	9a4ff0ef          	jal	ra,80002048 <main>
80002ea8:	00050513          	mv	a0,a0
80002eac:	00100073          	ebreak
80002eb0:	0000006f          	j	80002eb0 <_trm_init+0x1c>

80002eb4 <__am_timer_config>:
80002eb4:	00100793          	li	a5,1
80002eb8:	00f50023          	sb	a5,0(a0)
80002ebc:	00f500a3          	sb	a5,1(a0)
80002ec0:	00008067          	ret

80002ec4 <__am_input_config>:
80002ec4:	00100793          	li	a5,1
80002ec8:	00f50023          	sb	a5,0(a0)
80002ecc:	00008067          	ret

80002ed0 <__am_uart_config>:
80002ed0:	00050023          	sb	zero,0(a0)
80002ed4:	00008067          	ret

80002ed8 <__am_net_config>:
80002ed8:	00050023          	sb	zero,0(a0)
80002edc:	00008067          	ret

80002ee0 <fail>:
80002ee0:	ff010113          	addi	sp,sp,-16
80002ee4:	00812423          	sw	s0,8(sp)
80002ee8:	00112623          	sw	ra,12(sp)
80002eec:	00005417          	auipc	s0,0x5
80002ef0:	71c40413          	addi	s0,s0,1820 # 80008608 <minute+0x3e5c>
80002ef4:	04100513          	li	a0,65
80002ef8:	00140413          	addi	s0,s0,1
80002efc:	f81ff0ef          	jal	ra,80002e7c <putch>
80002f00:	00044503          	lbu	a0,0(s0)
80002f04:	fe051ae3          	bnez	a0,80002ef8 <fail+0x18>
80002f08:	00005417          	auipc	s0,0x5
80002f0c:	70c40413          	addi	s0,s0,1804 # 80008614 <minute+0x3e68>
80002f10:	06100513          	li	a0,97
80002f14:	00140413          	addi	s0,s0,1
80002f18:	f65ff0ef          	jal	ra,80002e7c <putch>
80002f1c:	00044503          	lbu	a0,0(s0)
80002f20:	fe051ae3          	bnez	a0,80002f14 <fail+0x34>
80002f24:	00005417          	auipc	s0,0x5
80002f28:	70c40413          	addi	s0,s0,1804 # 80008630 <minute+0x3e84>
80002f2c:	02000513          	li	a0,32
80002f30:	00140413          	addi	s0,s0,1
80002f34:	f49ff0ef          	jal	ra,80002e7c <putch>
80002f38:	00044503          	lbu	a0,0(s0)
80002f3c:	fe051ae3          	bnez	a0,80002f30 <fail+0x50>
80002f40:	00100513          	li	a0,1
80002f44:	f45ff0ef          	jal	ra,80002e88 <halt>

80002f48 <ioe_init>:
80002f48:	ff010113          	addi	sp,sp,-16
80002f4c:	00112623          	sw	ra,12(sp)
80002f50:	00005797          	auipc	a5,0x5
80002f54:	7c078793          	addi	a5,a5,1984 # 80008710 <lut>
80002f58:	00006697          	auipc	a3,0x6
80002f5c:	9b868693          	addi	a3,a3,-1608 # 80008910 <next>
80002f60:	00000617          	auipc	a2,0x0
80002f64:	f8060613          	addi	a2,a2,-128 # 80002ee0 <fail>
80002f68:	00c0006f          	j	80002f74 <ioe_init+0x2c>
80002f6c:	00478793          	addi	a5,a5,4
80002f70:	00d78c63          	beq	a5,a3,80002f88 <ioe_init+0x40>
80002f74:	0007a703          	lw	a4,0(a5)
80002f78:	fe071ae3          	bnez	a4,80002f6c <ioe_init+0x24>
80002f7c:	00c7a023          	sw	a2,0(a5)
80002f80:	00478793          	addi	a5,a5,4
80002f84:	fed798e3          	bne	a5,a3,80002f74 <ioe_init+0x2c>
80002f88:	0b8000ef          	jal	ra,80003040 <__am_gpu_init>
80002f8c:	050000ef          	jal	ra,80002fdc <__am_timer_init>
80002f90:	19c000ef          	jal	ra,8000312c <__am_audio_init>
80002f94:	00c12083          	lw	ra,12(sp)
80002f98:	00100513          	li	a0,1
80002f9c:	01010113          	addi	sp,sp,16
80002fa0:	00008067          	ret

80002fa4 <ioe_read>:
80002fa4:	00251513          	slli	a0,a0,0x2
80002fa8:	00005797          	auipc	a5,0x5
80002fac:	76878793          	addi	a5,a5,1896 # 80008710 <lut>
80002fb0:	00a787b3          	add	a5,a5,a0
80002fb4:	0007a783          	lw	a5,0(a5)
80002fb8:	00058513          	mv	a0,a1
80002fbc:	00078067          	jr	a5

80002fc0 <ioe_write>:
80002fc0:	00251513          	slli	a0,a0,0x2
80002fc4:	00005797          	auipc	a5,0x5
80002fc8:	74c78793          	addi	a5,a5,1868 # 80008710 <lut>
80002fcc:	00a787b3          	add	a5,a5,a0
80002fd0:	0007a783          	lw	a5,0(a5)
80002fd4:	00058513          	mv	a0,a1
80002fd8:	00078067          	jr	a5

80002fdc <__am_timer_init>:
80002fdc:	00008067          	ret

80002fe0 <__am_timer_uptime>:
80002fe0:	a00007b7          	lui	a5,0xa0000
80002fe4:	04c7a703          	lw	a4,76(a5) # a000004c <_end+0x1ffeb04c>
80002fe8:	0487a783          	lw	a5,72(a5)
80002fec:	00e52223          	sw	a4,4(a0)
80002ff0:	00f52023          	sw	a5,0(a0)
80002ff4:	00008067          	ret

80002ff8 <__am_timer_rtc>:
80002ff8:	76c00793          	li	a5,1900
80002ffc:	00052a23          	sw	zero,20(a0)
80003000:	00052823          	sw	zero,16(a0)
80003004:	00052623          	sw	zero,12(a0)
80003008:	00052423          	sw	zero,8(a0)
8000300c:	00052223          	sw	zero,4(a0)
80003010:	00f52023          	sw	a5,0(a0)
80003014:	00008067          	ret

80003018 <__am_input_keybrd>:
80003018:	a00007b7          	lui	a5,0xa0000
8000301c:	0607a783          	lw	a5,96(a5) # a0000060 <_end+0x1ffeb060>
80003020:	ffff86b7          	lui	a3,0xffff8
80003024:	fff68693          	addi	a3,a3,-1 # ffff7fff <_end+0x7ffe2fff>
80003028:	00f7d713          	srli	a4,a5,0xf
8000302c:	00177713          	andi	a4,a4,1
80003030:	00d7f7b3          	and	a5,a5,a3
80003034:	00e50023          	sb	a4,0(a0)
80003038:	00f52223          	sw	a5,4(a0)
8000303c:	00008067          	ret

80003040 <__am_gpu_init>:
80003040:	00008067          	ret

80003044 <__am_gpu_config>:
80003044:	00052223          	sw	zero,4(a0)
80003048:	00052423          	sw	zero,8(a0)
8000304c:	00052623          	sw	zero,12(a0)
80003050:	a00007b7          	lui	a5,0xa0000
80003054:	1007a783          	lw	a5,256(a5) # a0000100 <_end+0x1ffeb100>
80003058:	00100713          	li	a4,1
8000305c:	00e51023          	sh	a4,0(a0)
80003060:	0107d693          	srli	a3,a5,0x10
80003064:	01079793          	slli	a5,a5,0x10
80003068:	0107d793          	srli	a5,a5,0x10
8000306c:	02f68733          	mul	a4,a3,a5
80003070:	00f52423          	sw	a5,8(a0)
80003074:	00d52223          	sw	a3,4(a0)
80003078:	00271793          	slli	a5,a4,0x2
8000307c:	00f52623          	sw	a5,12(a0)
80003080:	00008067          	ret

80003084 <__am_gpu_fbdraw>:
80003084:	a00007b7          	lui	a5,0xa0000
80003088:	1007ae03          	lw	t3,256(a5) # a0000100 <_end+0x1ffeb100>
8000308c:	00452583          	lw	a1,4(a0)
80003090:	01052803          	lw	a6,16(a0)
80003094:	00852783          	lw	a5,8(a0)
80003098:	010e5e13          	srli	t3,t3,0x10
8000309c:	00058893          	mv	a7,a1
800030a0:	07005463          	blez	a6,80003108 <__am_gpu_fbdraw+0x84>
800030a4:	03c58333          	mul	t1,a1,t3
800030a8:	00052603          	lw	a2,0(a0)
800030ac:	00c52683          	lw	a3,12(a0)
800030b0:	a1000eb7          	lui	t4,0xa1000
800030b4:	00060713          	mv	a4,a2
800030b8:	04d05063          	blez	a3,800030f8 <__am_gpu_fbdraw+0x74>
800030bc:	00660833          	add	a6,a2,t1
800030c0:	00281813          	slli	a6,a6,0x2
800030c4:	40f80833          	sub	a6,a6,a5
800030c8:	01d80833          	add	a6,a6,t4
800030cc:	0007a603          	lw	a2,0(a5)
800030d0:	010786b3          	add	a3,a5,a6
800030d4:	00170713          	addi	a4,a4,1
800030d8:	00c6a023          	sw	a2,0(a3)
800030dc:	00052603          	lw	a2,0(a0)
800030e0:	00c52683          	lw	a3,12(a0)
800030e4:	00478793          	addi	a5,a5,4
800030e8:	00d605b3          	add	a1,a2,a3
800030ec:	feb740e3          	blt	a4,a1,800030cc <__am_gpu_fbdraw+0x48>
800030f0:	00452583          	lw	a1,4(a0)
800030f4:	01052803          	lw	a6,16(a0)
800030f8:	00188893          	addi	a7,a7,1
800030fc:	01058733          	add	a4,a1,a6
80003100:	01c30333          	add	t1,t1,t3
80003104:	fae8c8e3          	blt	a7,a4,800030b4 <__am_gpu_fbdraw+0x30>
80003108:	01454783          	lbu	a5,20(a0)
8000310c:	00078863          	beqz	a5,8000311c <__am_gpu_fbdraw+0x98>
80003110:	a00007b7          	lui	a5,0xa0000
80003114:	00100713          	li	a4,1
80003118:	10e7a223          	sw	a4,260(a5) # a0000104 <_end+0x1ffeb104>
8000311c:	00008067          	ret

80003120 <__am_gpu_status>:
80003120:	00100793          	li	a5,1
80003124:	00f50023          	sb	a5,0(a0)
80003128:	00008067          	ret

8000312c <__am_audio_init>:
8000312c:	00008067          	ret

80003130 <__am_audio_config>:
80003130:	00050023          	sb	zero,0(a0)
80003134:	00008067          	ret

80003138 <__am_audio_ctrl>:
80003138:	00008067          	ret

8000313c <__am_audio_status>:
8000313c:	00052023          	sw	zero,0(a0)
80003140:	00008067          	ret

80003144 <__am_audio_play>:
80003144:	00008067          	ret

80003148 <__am_disk_config>:
80003148:	00050023          	sb	zero,0(a0)
8000314c:	00008067          	ret

80003150 <__am_disk_status>:
80003150:	00008067          	ret

80003154 <__am_disk_blkio>:
80003154:	00008067          	ret

80003158 <strlen>:
80003158:	00054783          	lbu	a5,0(a0)
8000315c:	00050713          	mv	a4,a0
80003160:	00000513          	li	a0,0
80003164:	00078c63          	beqz	a5,8000317c <strlen+0x24>
80003168:	00150513          	addi	a0,a0,1
8000316c:	00a707b3          	add	a5,a4,a0
80003170:	0007c783          	lbu	a5,0(a5)
80003174:	fe079ae3          	bnez	a5,80003168 <strlen+0x10>
80003178:	00008067          	ret
8000317c:	00008067          	ret

80003180 <memset>:
80003180:	0ff5f593          	zext.b	a1,a1
80003184:	00050793          	mv	a5,a0
80003188:	00a60733          	add	a4,a2,a0
8000318c:	00060863          	beqz	a2,8000319c <memset+0x1c>
80003190:	00b78023          	sb	a1,0(a5)
80003194:	00178793          	addi	a5,a5,1
80003198:	fee79ce3          	bne	a5,a4,80003190 <memset+0x10>
8000319c:	00008067          	ret

800031a0 <memmove>:
800031a0:	04b50a63          	beq	a0,a1,800031f4 <memmove+0x54>
800031a4:	00058793          	mv	a5,a1
800031a8:	00050713          	mv	a4,a0
800031ac:	02b57263          	bgeu	a0,a1,800031d0 <memmove+0x30>
800031b0:	04060263          	beqz	a2,800031f4 <memmove+0x54>
800031b4:	00c58633          	add	a2,a1,a2
800031b8:	0007c683          	lbu	a3,0(a5)
800031bc:	00178793          	addi	a5,a5,1
800031c0:	00170713          	addi	a4,a4,1
800031c4:	fed70fa3          	sb	a3,-1(a4)
800031c8:	fec798e3          	bne	a5,a2,800031b8 <memmove+0x18>
800031cc:	00008067          	ret
800031d0:	fff60613          	addi	a2,a2,-1
800031d4:	02064063          	bltz	a2,800031f4 <memmove+0x54>
800031d8:	fff00693          	li	a3,-1
800031dc:	00c587b3          	add	a5,a1,a2
800031e0:	0007c703          	lbu	a4,0(a5)
800031e4:	00c507b3          	add	a5,a0,a2
800031e8:	fff60613          	addi	a2,a2,-1
800031ec:	00e78023          	sb	a4,0(a5)
800031f0:	fed616e3          	bne	a2,a3,800031dc <memmove+0x3c>
800031f4:	00008067          	ret

800031f8 <rand>:
800031f8:	00005697          	auipc	a3,0x5
800031fc:	71868693          	addi	a3,a3,1816 # 80008910 <next>
80003200:	0006a783          	lw	a5,0(a3)
80003204:	41c65737          	lui	a4,0x41c65
80003208:	e6d70713          	addi	a4,a4,-403 # 41c64e6d <_entry_offset+0x41c64e6d>
8000320c:	02e787b3          	mul	a5,a5,a4
80003210:	00003737          	lui	a4,0x3
80003214:	03970713          	addi	a4,a4,57 # 3039 <_entry_offset+0x3039>
80003218:	00e787b3          	add	a5,a5,a4
8000321c:	00179513          	slli	a0,a5,0x1
80003220:	00f6a023          	sw	a5,0(a3)
80003224:	01155513          	srli	a0,a0,0x11
80003228:	00008067          	ret

8000322c <malloc>:
8000322c:	00005697          	auipc	a3,0x5
80003230:	4cc68693          	addi	a3,a3,1228 # 800086f8 <addrspace>
80003234:	00c6a603          	lw	a2,12(a3)
80003238:	00750793          	addi	a5,a0,7
8000323c:	00005717          	auipc	a4,0x5
80003240:	4cc70713          	addi	a4,a4,1228 # 80008708 <heap>
80003244:	ff87f793          	andi	a5,a5,-8
80003248:	00072583          	lw	a1,0(a4)
8000324c:	00f607b3          	add	a5,a2,a5
80003250:	00f6a623          	sw	a5,12(a3)
80003254:	02b7e663          	bltu	a5,a1,80003280 <malloc+0x54>
80003258:	00472703          	lw	a4,4(a4)
8000325c:	02e7f263          	bgeu	a5,a4,80003280 <malloc+0x54>
80003260:	00c78c63          	beq	a5,a2,80003278 <malloc+0x4c>
80003264:	00060793          	mv	a5,a2
80003268:	00078023          	sb	zero,0(a5)
8000326c:	00c6a703          	lw	a4,12(a3)
80003270:	00178793          	addi	a5,a5,1
80003274:	fef71ae3          	bne	a4,a5,80003268 <malloc+0x3c>
80003278:	00060513          	mv	a0,a2
8000327c:	00008067          	ret
80003280:	00000613          	li	a2,0
80003284:	00060513          	mv	a0,a2
80003288:	00008067          	ret

8000328c <int2str>:
8000328c:	fb010113          	addi	sp,sp,-80
80003290:	03312e23          	sw	s3,60(sp)
80003294:	05412983          	lw	s3,84(sp)
80003298:	04812423          	sw	s0,72(sp)
8000329c:	04912223          	sw	s1,68(sp)
800032a0:	0009a303          	lw	t1,0(s3)
800032a4:	03412c23          	sw	s4,56(sp)
800032a8:	03512a23          	sw	s5,52(sp)
800032ac:	03612823          	sw	s6,48(sp)
800032b0:	03812423          	sw	s8,40(sp)
800032b4:	03912223          	sw	s9,36(sp)
800032b8:	01b12e23          	sw	s11,28(sp)
800032bc:	04112623          	sw	ra,76(sp)
800032c0:	05212023          	sw	s2,64(sp)
800032c4:	03712623          	sw	s7,44(sp)
800032c8:	03a12023          	sw	s10,32(sp)
800032cc:	05012403          	lw	s0,80(sp)
800032d0:	00050e13          	mv	t3,a0
800032d4:	00058a93          	mv	s5,a1
800032d8:	00068c13          	mv	s8,a3
800032dc:	00078a13          	mv	s4,a5
800032e0:	00080b13          	mv	s6,a6
800032e4:	00088d93          	mv	s11,a7
800032e8:	00030c93          	mv	s9,t1
800032ec:	00000493          	li	s1,0
800032f0:	00070463          	beqz	a4,800032f8 <int2str+0x6c>
800032f4:	18054663          	bltz	a0,80003480 <int2str+0x1f4>
800032f8:	00410b93          	addi	s7,sp,4
800032fc:	00900593          	li	a1,9
80003300:	00c0006f          	j	8000330c <int2str+0x80>
80003304:	00090493          	mv	s1,s2
80003308:	00078e13          	mv	t3,a5
8000330c:	02ce77b3          	remu	a5,t3,a2
80003310:	0ff7f713          	zext.b	a4,a5
80003314:	05770693          	addi	a3,a4,87
80003318:	03070713          	addi	a4,a4,48
8000331c:	0ff77713          	zext.b	a4,a4
80003320:	00f5f463          	bgeu	a1,a5,80003328 <int2str+0x9c>
80003324:	0ff6f713          	zext.b	a4,a3
80003328:	00148913          	addi	s2,s1,1
8000332c:	012b87b3          	add	a5,s7,s2
80003330:	fee78fa3          	sb	a4,-1(a5)
80003334:	02ce57b3          	divu	a5,t3,a2
80003338:	fcce76e3          	bgeu	t3,a2,80003304 <int2str+0x78>
8000333c:	140a1c63          	bnez	s4,80003494 <int2str+0x208>
80003340:	15695a63          	bge	s2,s6,80003494 <int2str+0x208>
80003344:	000a8793          	mv	a5,s5
80003348:	01c0006f          	j	80003364 <int2str+0xd8>
8000334c:	01b78023          	sb	s11,0(a5)
80003350:	0009a303          	lw	t1,0(s3)
80003354:	000d0793          	mv	a5,s10
80003358:	00130313          	addi	t1,t1,1 # ff0001 <_entry_offset+0xff0001>
8000335c:	0069a023          	sw	t1,0(s3)
80003360:	03690a63          	beq	s2,s6,80003394 <int2str+0x108>
80003364:	fffb0b13          	addi	s6,s6,-1
80003368:	fe8058e3          	blez	s0,80003358 <int2str+0xcc>
8000336c:	00178d13          	addi	s10,a5,1
80003370:	fff40413          	addi	s0,s0,-1
80003374:	fc0c0ce3          	beqz	s8,8000334c <int2str+0xc0>
80003378:	000d8513          	mv	a0,s11
8000337c:	b01ff0ef          	jal	ra,80002e7c <putch>
80003380:	0009a303          	lw	t1,0(s3)
80003384:	000d0793          	mv	a5,s10
80003388:	00130313          	addi	t1,t1,1
8000338c:	0069a023          	sw	t1,0(s3)
80003390:	fd691ae3          	bne	s2,s6,80003364 <int2str+0xd8>
80003394:	009b84b3          	add	s1,s7,s1
80003398:	02805063          	blez	s0,800033b8 <int2str+0x12c>
8000339c:	0004c503          	lbu	a0,0(s1)
800033a0:	00178b13          	addi	s6,a5,1
800033a4:	fff40413          	addi	s0,s0,-1
800033a8:	020c1663          	bnez	s8,800033d4 <int2str+0x148>
800033ac:	00a78023          	sb	a0,0(a5)
800033b0:	0009a303          	lw	t1,0(s3)
800033b4:	000b0793          	mv	a5,s6
800033b8:	00130713          	addi	a4,t1,1
800033bc:	00e9a023          	sw	a4,0(s3)
800033c0:	fff48693          	addi	a3,s1,-1
800033c4:	00070313          	mv	t1,a4
800033c8:	029b8663          	beq	s7,s1,800033f4 <int2str+0x168>
800033cc:	00068493          	mv	s1,a3
800033d0:	fc9ff06f          	j	80003398 <int2str+0x10c>
800033d4:	aa9ff0ef          	jal	ra,80002e7c <putch>
800033d8:	0009a303          	lw	t1,0(s3)
800033dc:	000b0793          	mv	a5,s6
800033e0:	fff48693          	addi	a3,s1,-1
800033e4:	00130713          	addi	a4,t1,1
800033e8:	00e9a023          	sw	a4,0(s3)
800033ec:	00070313          	mv	t1,a4
800033f0:	fc9b9ee3          	bne	s7,s1,800033cc <int2str+0x140>
800033f4:	020a1063          	bnez	s4,80003414 <int2str+0x188>
800033f8:	0480006f          	j	80003440 <int2str+0x1b4>
800033fc:	02000713          	li	a4,32
80003400:	00e78023          	sb	a4,0(a5)
80003404:	0009a703          	lw	a4,0(s3)
80003408:	00048793          	mv	a5,s1
8000340c:	00170713          	addi	a4,a4,1
80003410:	00e9a023          	sw	a4,0(s3)
80003414:	41970633          	sub	a2,a4,s9
80003418:	03265463          	bge	a2,s2,80003440 <int2str+0x1b4>
8000341c:	fe8058e3          	blez	s0,8000340c <int2str+0x180>
80003420:	00178493          	addi	s1,a5,1
80003424:	fff40413          	addi	s0,s0,-1
80003428:	fc0c0ae3          	beqz	s8,800033fc <int2str+0x170>
8000342c:	02000513          	li	a0,32
80003430:	a4dff0ef          	jal	ra,80002e7c <putch>
80003434:	0009a703          	lw	a4,0(s3)
80003438:	00048793          	mv	a5,s1
8000343c:	fd1ff06f          	j	8000340c <int2str+0x180>
80003440:	04c12083          	lw	ra,76(sp)
80003444:	04812403          	lw	s0,72(sp)
80003448:	04412483          	lw	s1,68(sp)
8000344c:	04012903          	lw	s2,64(sp)
80003450:	03c12983          	lw	s3,60(sp)
80003454:	03812a03          	lw	s4,56(sp)
80003458:	03012b03          	lw	s6,48(sp)
8000345c:	02c12b83          	lw	s7,44(sp)
80003460:	02812c03          	lw	s8,40(sp)
80003464:	02412c83          	lw	s9,36(sp)
80003468:	02012d03          	lw	s10,32(sp)
8000346c:	01c12d83          	lw	s11,28(sp)
80003470:	41578533          	sub	a0,a5,s5
80003474:	03412a83          	lw	s5,52(sp)
80003478:	05010113          	addi	sp,sp,80
8000347c:	00008067          	ret
80003480:	02d00793          	li	a5,45
80003484:	40a00e33          	neg	t3,a0
80003488:	00f10223          	sb	a5,4(sp)
8000348c:	00100493          	li	s1,1
80003490:	e69ff06f          	j	800032f8 <int2str+0x6c>
80003494:	000b0913          	mv	s2,s6
80003498:	000a8793          	mv	a5,s5
8000349c:	009b84b3          	add	s1,s7,s1
800034a0:	ef9ff06f          	j	80003398 <int2str+0x10c>

800034a4 <printstr>:
800034a4:	fd010113          	addi	sp,sp,-48
800034a8:	01512a23          	sw	s5,20(sp)
800034ac:	00068a93          	mv	s5,a3
800034b0:	02812423          	sw	s0,40(sp)
800034b4:	02912223          	sw	s1,36(sp)
800034b8:	03212023          	sw	s2,32(sp)
800034bc:	01312e23          	sw	s3,28(sp)
800034c0:	01412c23          	sw	s4,24(sp)
800034c4:	01612823          	sw	s6,16(sp)
800034c8:	01712623          	sw	s7,12(sp)
800034cc:	02112623          	sw	ra,44(sp)
800034d0:	01812423          	sw	s8,8(sp)
800034d4:	01912223          	sw	s9,4(sp)
800034d8:	00082983          	lw	s3,0(a6)
800034dc:	00080493          	mv	s1,a6
800034e0:	00050b13          	mv	s6,a0
800034e4:	00058a13          	mv	s4,a1
800034e8:	00060b93          	mv	s7,a2
800034ec:	00070913          	mv	s2,a4
800034f0:	00078413          	mv	s0,a5
800034f4:	c65ff0ef          	jal	ra,80003158 <strlen>
800034f8:	120a9463          	bnez	s5,80003620 <printstr+0x17c>
800034fc:	00050c13          	mv	s8,a0
80003500:	000a0793          	mv	a5,s4
80003504:	03254263          	blt	a0,s2,80003528 <printstr+0x84>
80003508:	0500006f          	j	80003558 <printstr+0xb4>
8000350c:	02000713          	li	a4,32
80003510:	00e78023          	sb	a4,0(a5)
80003514:	000c8793          	mv	a5,s9
80003518:	0004a703          	lw	a4,0(s1)
8000351c:	00170713          	addi	a4,a4,1
80003520:	00e4a023          	sw	a4,0(s1)
80003524:	032c0a63          	beq	s8,s2,80003558 <printstr+0xb4>
80003528:	fff90913          	addi	s2,s2,-1
8000352c:	fe8056e3          	blez	s0,80003518 <printstr+0x74>
80003530:	00178c93          	addi	s9,a5,1
80003534:	fff40413          	addi	s0,s0,-1
80003538:	fc0b8ae3          	beqz	s7,8000350c <printstr+0x68>
8000353c:	02000513          	li	a0,32
80003540:	93dff0ef          	jal	ra,80002e7c <putch>
80003544:	0004a703          	lw	a4,0(s1)
80003548:	000c8793          	mv	a5,s9
8000354c:	00170713          	addi	a4,a4,1
80003550:	00e4a023          	sw	a4,0(s1)
80003554:	fd2c1ae3          	bne	s8,s2,80003528 <printstr+0x84>
80003558:	000b4503          	lbu	a0,0(s6)
8000355c:	08050063          	beqz	a0,800035dc <printstr+0x138>
80003560:	00805c63          	blez	s0,80003578 <printstr+0xd4>
80003564:	00178c13          	addi	s8,a5,1
80003568:	fff40413          	addi	s0,s0,-1
8000356c:	0a0b9463          	bnez	s7,80003614 <printstr+0x170>
80003570:	00a78023          	sb	a0,0(a5)
80003574:	000c0793          	mv	a5,s8
80003578:	0004a883          	lw	a7,0(s1)
8000357c:	001b0b13          	addi	s6,s6,1
80003580:	00188893          	addi	a7,a7,1
80003584:	0114a023          	sw	a7,0(s1)
80003588:	000b4503          	lbu	a0,0(s6)
8000358c:	fc051ae3          	bnez	a0,80003560 <printstr+0xbc>
80003590:	020a9063          	bnez	s5,800035b0 <printstr+0x10c>
80003594:	0480006f          	j	800035dc <printstr+0x138>
80003598:	02000713          	li	a4,32
8000359c:	00e78023          	sb	a4,0(a5)
800035a0:	0004a883          	lw	a7,0(s1)
800035a4:	000a8793          	mv	a5,s5
800035a8:	00188893          	addi	a7,a7,1
800035ac:	0114a023          	sw	a7,0(s1)
800035b0:	41388733          	sub	a4,a7,s3
800035b4:	03275463          	bge	a4,s2,800035dc <printstr+0x138>
800035b8:	fe8058e3          	blez	s0,800035a8 <printstr+0x104>
800035bc:	00178a93          	addi	s5,a5,1
800035c0:	fff40413          	addi	s0,s0,-1
800035c4:	fc0b8ae3          	beqz	s7,80003598 <printstr+0xf4>
800035c8:	02000513          	li	a0,32
800035cc:	8b1ff0ef          	jal	ra,80002e7c <putch>
800035d0:	0004a883          	lw	a7,0(s1)
800035d4:	000a8793          	mv	a5,s5
800035d8:	fd1ff06f          	j	800035a8 <printstr+0x104>
800035dc:	02c12083          	lw	ra,44(sp)
800035e0:	02812403          	lw	s0,40(sp)
800035e4:	02412483          	lw	s1,36(sp)
800035e8:	02012903          	lw	s2,32(sp)
800035ec:	01c12983          	lw	s3,28(sp)
800035f0:	01412a83          	lw	s5,20(sp)
800035f4:	01012b03          	lw	s6,16(sp)
800035f8:	00c12b83          	lw	s7,12(sp)
800035fc:	00812c03          	lw	s8,8(sp)
80003600:	00412c83          	lw	s9,4(sp)
80003604:	41478533          	sub	a0,a5,s4
80003608:	01812a03          	lw	s4,24(sp)
8000360c:	03010113          	addi	sp,sp,48
80003610:	00008067          	ret
80003614:	869ff0ef          	jal	ra,80002e7c <putch>
80003618:	000c0793          	mv	a5,s8
8000361c:	f5dff06f          	j	80003578 <printstr+0xd4>
80003620:	000b4503          	lbu	a0,0(s6)
80003624:	000a0793          	mv	a5,s4
80003628:	f2051ce3          	bnez	a0,80003560 <printstr+0xbc>
8000362c:	0004a883          	lw	a7,0(s1)
80003630:	f81ff06f          	j	800035b0 <printstr+0x10c>

80003634 <printf>:
80003634:	f9010113          	addi	sp,sp,-112
80003638:	03412c23          	sw	s4,56(sp)
8000363c:	06f12223          	sw	a5,100(sp)
80003640:	04112623          	sw	ra,76(sp)
80003644:	04812423          	sw	s0,72(sp)
80003648:	04912223          	sw	s1,68(sp)
8000364c:	05212023          	sw	s2,64(sp)
80003650:	03312e23          	sw	s3,60(sp)
80003654:	03512a23          	sw	s5,52(sp)
80003658:	03612823          	sw	s6,48(sp)
8000365c:	03712623          	sw	s7,44(sp)
80003660:	03812423          	sw	s8,40(sp)
80003664:	03912223          	sw	s9,36(sp)
80003668:	03a12023          	sw	s10,32(sp)
8000366c:	04b12a23          	sw	a1,84(sp)
80003670:	04c12c23          	sw	a2,88(sp)
80003674:	04d12e23          	sw	a3,92(sp)
80003678:	06e12023          	sw	a4,96(sp)
8000367c:	07012423          	sw	a6,104(sp)
80003680:	07112623          	sw	a7,108(sp)
80003684:	00050a13          	mv	s4,a0
80003688:	00054503          	lbu	a0,0(a0)
8000368c:	05410793          	addi	a5,sp,84
80003690:	00012c23          	sw	zero,24(sp)
80003694:	00f12e23          	sw	a5,28(sp)
80003698:	2c050663          	beqz	a0,80003964 <printf+0x330>
8000369c:	10000937          	lui	s2,0x10000
800036a0:	ffe90993          	addi	s3,s2,-2 # ffffffe <_entry_offset+0xffffffe>
800036a4:	00000a93          	li	s5,0
800036a8:	00000c13          	li	s8,0
800036ac:	02000d13          	li	s10,32
800036b0:	00000c93          	li	s9,0
800036b4:	00000b93          	li	s7,0
800036b8:	02500493          	li	s1,37
800036bc:	03900413          	li	s0,57
800036c0:	fff90913          	addi	s2,s2,-1
800036c4:	00005b17          	auipc	s6,0x5
800036c8:	fc0b0b13          	addi	s6,s6,-64 # 80008684 <minute+0x3ed8>
800036cc:	120c8863          	beqz	s9,800037fc <printf+0x1c8>
800036d0:	02a46863          	bltu	s0,a0,80003700 <printf+0xcc>
800036d4:	02400793          	li	a5,36
800036d8:	1aa7f663          	bgeu	a5,a0,80003884 <printf+0x250>
800036dc:	fdb50793          	addi	a5,a0,-37
800036e0:	0ff7f793          	zext.b	a5,a5
800036e4:	01400713          	li	a4,20
800036e8:	18f76e63          	bltu	a4,a5,80003884 <printf+0x250>
800036ec:	00279793          	slli	a5,a5,0x2
800036f0:	016787b3          	add	a5,a5,s6
800036f4:	0007a783          	lw	a5,0(a5)
800036f8:	016787b3          	add	a5,a5,s6
800036fc:	00078067          	jr	a5
80003700:	07300793          	li	a5,115
80003704:	1ef50a63          	beq	a0,a5,800038f8 <printf+0x2c4>
80003708:	07800793          	li	a5,120
8000370c:	0af51263          	bne	a0,a5,800037b0 <printf+0x17c>
80003710:	01c12783          	lw	a5,28(sp)
80003714:	41790733          	sub	a4,s2,s7
80003718:	01810693          	addi	a3,sp,24
8000371c:	0007a503          	lw	a0,0(a5)
80003720:	00478313          	addi	t1,a5,4
80003724:	00d12223          	sw	a3,4(sp)
80003728:	00e12023          	sw	a4,0(sp)
8000372c:	000d0893          	mv	a7,s10
80003730:	000a8813          	mv	a6,s5
80003734:	000c0793          	mv	a5,s8
80003738:	000b8593          	mv	a1,s7
8000373c:	00000713          	li	a4,0
80003740:	00100693          	li	a3,1
80003744:	01000613          	li	a2,16
80003748:	00612e23          	sw	t1,28(sp)
8000374c:	b41ff0ef          	jal	ra,8000328c <int2str>
80003750:	00ab8bb3          	add	s7,s7,a0
80003754:	000a0793          	mv	a5,s4
80003758:	00000a93          	li	s5,0
8000375c:	00000c13          	li	s8,0
80003760:	02000d13          	li	s10,32
80003764:	00000c93          	li	s9,0
80003768:	0017c503          	lbu	a0,1(a5)
8000376c:	00178a13          	addi	s4,a5,1
80003770:	f4051ee3          	bnez	a0,800036cc <printf+0x98>
80003774:	01812503          	lw	a0,24(sp)
80003778:	04c12083          	lw	ra,76(sp)
8000377c:	04812403          	lw	s0,72(sp)
80003780:	04412483          	lw	s1,68(sp)
80003784:	04012903          	lw	s2,64(sp)
80003788:	03c12983          	lw	s3,60(sp)
8000378c:	03812a03          	lw	s4,56(sp)
80003790:	03412a83          	lw	s5,52(sp)
80003794:	03012b03          	lw	s6,48(sp)
80003798:	02c12b83          	lw	s7,44(sp)
8000379c:	02812c03          	lw	s8,40(sp)
800037a0:	02412c83          	lw	s9,36(sp)
800037a4:	02012d03          	lw	s10,32(sp)
800037a8:	07010113          	addi	sp,sp,112
800037ac:	00008067          	ret
800037b0:	06400793          	li	a5,100
800037b4:	0cf51863          	bne	a0,a5,80003884 <printf+0x250>
800037b8:	01c12783          	lw	a5,28(sp)
800037bc:	41790733          	sub	a4,s2,s7
800037c0:	01810693          	addi	a3,sp,24
800037c4:	0007a503          	lw	a0,0(a5)
800037c8:	00478313          	addi	t1,a5,4
800037cc:	00d12223          	sw	a3,4(sp)
800037d0:	00e12023          	sw	a4,0(sp)
800037d4:	000d0893          	mv	a7,s10
800037d8:	000a8813          	mv	a6,s5
800037dc:	000c0793          	mv	a5,s8
800037e0:	000b8593          	mv	a1,s7
800037e4:	00100713          	li	a4,1
800037e8:	00100693          	li	a3,1
800037ec:	00a00613          	li	a2,10
800037f0:	00612e23          	sw	t1,28(sp)
800037f4:	a99ff0ef          	jal	ra,8000328c <int2str>
800037f8:	f59ff06f          	j	80003750 <printf+0x11c>
800037fc:	00950e63          	beq	a0,s1,80003818 <printf+0x1e4>
80003800:	0379d263          	bge	s3,s7,80003824 <printf+0x1f0>
80003804:	01812703          	lw	a4,24(sp)
80003808:	000a0793          	mv	a5,s4
8000380c:	00170713          	addi	a4,a4,1
80003810:	00e12c23          	sw	a4,24(sp)
80003814:	f55ff06f          	j	80003768 <printf+0x134>
80003818:	000a0793          	mv	a5,s4
8000381c:	00100c93          	li	s9,1
80003820:	f49ff06f          	j	80003768 <printf+0x134>
80003824:	e58ff0ef          	jal	ra,80002e7c <putch>
80003828:	001b8b93          	addi	s7,s7,1
8000382c:	fd9ff06f          	j	80003804 <printf+0x1d0>
80003830:	000a4683          	lbu	a3,0(s4)
80003834:	00900793          	li	a5,9
80003838:	fd068713          	addi	a4,a3,-48
8000383c:	0ff77693          	zext.b	a3,a4
80003840:	12d7e663          	bltu	a5,a3,8000396c <printf+0x338>
80003844:	000a0793          	mv	a5,s4
80003848:	00000a93          	li	s5,0
8000384c:	00900593          	li	a1,9
80003850:	0017c683          	lbu	a3,1(a5)
80003854:	002a9613          	slli	a2,s5,0x2
80003858:	01560633          	add	a2,a2,s5
8000385c:	00161613          	slli	a2,a2,0x1
80003860:	00e60ab3          	add	s5,a2,a4
80003864:	fd068713          	addi	a4,a3,-48
80003868:	0ff77693          	zext.b	a3,a4
8000386c:	00178793          	addi	a5,a5,1
80003870:	fed5f0e3          	bgeu	a1,a3,80003850 <printf+0x21c>
80003874:	414787b3          	sub	a5,a5,s4
80003878:	fff78793          	addi	a5,a5,-1
8000387c:	00fa07b3          	add	a5,s4,a5
80003880:	ee9ff06f          	j	80003768 <printf+0x134>
80003884:	0d79d063          	bge	s3,s7,80003944 <printf+0x310>
80003888:	01812703          	lw	a4,24(sp)
8000388c:	000a0793          	mv	a5,s4
80003890:	00000a93          	li	s5,0
80003894:	00270713          	addi	a4,a4,2
80003898:	00e12c23          	sw	a4,24(sp)
8000389c:	00000c13          	li	s8,0
800038a0:	02000d13          	li	s10,32
800038a4:	00000c93          	li	s9,0
800038a8:	ec1ff06f          	j	80003768 <printf+0x134>
800038ac:	01c12703          	lw	a4,28(sp)
800038b0:	000a0793          	mv	a5,s4
800038b4:	00470693          	addi	a3,a4,4
800038b8:	00072a83          	lw	s5,0(a4)
800038bc:	00d12e23          	sw	a3,28(sp)
800038c0:	ea9ff06f          	j	80003768 <printf+0x134>
800038c4:	0779d863          	bge	s3,s7,80003934 <printf+0x300>
800038c8:	01812703          	lw	a4,24(sp)
800038cc:	000a0793          	mv	a5,s4
800038d0:	00000a93          	li	s5,0
800038d4:	00170713          	addi	a4,a4,1
800038d8:	00e12c23          	sw	a4,24(sp)
800038dc:	00000c13          	li	s8,0
800038e0:	02000d13          	li	s10,32
800038e4:	00000c93          	li	s9,0
800038e8:	e81ff06f          	j	80003768 <printf+0x134>
800038ec:	000a0793          	mv	a5,s4
800038f0:	00100c13          	li	s8,1
800038f4:	e75ff06f          	j	80003768 <printf+0x134>
800038f8:	01c12683          	lw	a3,28(sp)
800038fc:	417907b3          	sub	a5,s2,s7
80003900:	000a8713          	mv	a4,s5
80003904:	0006a503          	lw	a0,0(a3)
80003908:	00468893          	addi	a7,a3,4
8000390c:	000b8593          	mv	a1,s7
80003910:	000c0693          	mv	a3,s8
80003914:	01810813          	addi	a6,sp,24
80003918:	00100613          	li	a2,1
8000391c:	01112e23          	sw	a7,28(sp)
80003920:	b85ff0ef          	jal	ra,800034a4 <printstr>
80003924:	e2dff06f          	j	80003750 <printf+0x11c>
80003928:	000a0793          	mv	a5,s4
8000392c:	00050d13          	mv	s10,a0
80003930:	e39ff06f          	j	80003768 <printf+0x134>
80003934:	02500513          	li	a0,37
80003938:	d44ff0ef          	jal	ra,80002e7c <putch>
8000393c:	001b8b93          	addi	s7,s7,1
80003940:	f89ff06f          	j	800038c8 <printf+0x294>
80003944:	02500513          	li	a0,37
80003948:	d34ff0ef          	jal	ra,80002e7c <putch>
8000394c:	001b8793          	addi	a5,s7,1
80003950:	02f9c663          	blt	s3,a5,8000397c <printf+0x348>
80003954:	000a4503          	lbu	a0,0(s4)
80003958:	002b8b93          	addi	s7,s7,2
8000395c:	d20ff0ef          	jal	ra,80002e7c <putch>
80003960:	f29ff06f          	j	80003888 <printf+0x254>
80003964:	00000513          	li	a0,0
80003968:	e11ff06f          	j	80003778 <printf+0x144>
8000396c:	fff00793          	li	a5,-1
80003970:	00000a93          	li	s5,0
80003974:	00fa07b3          	add	a5,s4,a5
80003978:	df1ff06f          	j	80003768 <printf+0x134>
8000397c:	00078b93          	mv	s7,a5
80003980:	f09ff06f          	j	80003888 <printf+0x254>
