
/home/wzr/NJU/ics/ics2023/am-kernels/benchmarks/coremark/build/coremark-riscv32-nemu.elf:     file format elf32-littleriscv


Disassembly of section .text:

80000000 <_start>:
80000000:	00000413          	li	s0,0
80000004:	0000c117          	auipc	sp,0xc
80000008:	ffc10113          	addi	sp,sp,-4 # 8000c000 <_end>
8000000c:	264020ef          	jal	ra,80002270 <_trm_init>

80000010 <get_seed_32>:
80000010:	00500793          	li	a5,5
80000014:	04a7ee63          	bltu	a5,a0,80000070 <get_seed_32+0x60>
80000018:	00003717          	auipc	a4,0x3
8000001c:	dd070713          	addi	a4,a4,-560 # 80002de8 <_etext>
80000020:	00251513          	slli	a0,a0,0x2
80000024:	00e50533          	add	a0,a0,a4
80000028:	00052783          	lw	a5,0(a0)
8000002c:	00e787b3          	add	a5,a5,a4
80000030:	00078067          	jr	a5
80000034:	00004517          	auipc	a0,0x4
80000038:	d4c52503          	lw	a0,-692(a0) # 80003d80 <seed5_volatile>
8000003c:	00008067          	ret
80000040:	00004517          	auipc	a0,0x4
80000044:	d3852503          	lw	a0,-712(a0) # 80003d78 <seed1_volatile>
80000048:	00008067          	ret
8000004c:	00004517          	auipc	a0,0x4
80000050:	d3052503          	lw	a0,-720(a0) # 80003d7c <seed2_volatile>
80000054:	00008067          	ret
80000058:	00003517          	auipc	a0,0x3
8000005c:	34852503          	lw	a0,840(a0) # 800033a0 <seed3_volatile>
80000060:	00008067          	ret
80000064:	00003517          	auipc	a0,0x3
80000068:	34052503          	lw	a0,832(a0) # 800033a4 <seed4_volatile>
8000006c:	00008067          	ret
80000070:	00000513          	li	a0,0
80000074:	00008067          	ret

80000078 <crcu16>:
80000078:	00050693          	mv	a3,a0
8000007c:	ffffa837          	lui	a6,0xffffa
80000080:	00058513          	mv	a0,a1
80000084:	0ff6f613          	zext.b	a2,a3
80000088:	00800793          	li	a5,8
8000008c:	00180813          	addi	a6,a6,1 # ffffa001 <_end+0x7ffee001>
80000090:	00a64733          	xor	a4,a2,a0
80000094:	fff78793          	addi	a5,a5,-1
80000098:	00155513          	srli	a0,a0,0x1
8000009c:	00177713          	andi	a4,a4,1
800000a0:	0ff7f793          	zext.b	a5,a5
800000a4:	010545b3          	xor	a1,a0,a6
800000a8:	00165613          	srli	a2,a2,0x1
800000ac:	00070663          	beqz	a4,800000b8 <crcu16+0x40>
800000b0:	01059513          	slli	a0,a1,0x10
800000b4:	01055513          	srli	a0,a0,0x10
800000b8:	fc079ce3          	bnez	a5,80000090 <crcu16+0x18>
800000bc:	ffffa5b7          	lui	a1,0xffffa
800000c0:	0086d693          	srli	a3,a3,0x8
800000c4:	00800793          	li	a5,8
800000c8:	00158593          	addi	a1,a1,1 # ffffa001 <_end+0x7ffee001>
800000cc:	00a6c733          	xor	a4,a3,a0
800000d0:	fff78793          	addi	a5,a5,-1
800000d4:	00155513          	srli	a0,a0,0x1
800000d8:	00177713          	andi	a4,a4,1
800000dc:	0ff7f793          	zext.b	a5,a5
800000e0:	00b54633          	xor	a2,a0,a1
800000e4:	0016d693          	srli	a3,a3,0x1
800000e8:	00070663          	beqz	a4,800000f4 <crcu16+0x7c>
800000ec:	01061513          	slli	a0,a2,0x10
800000f0:	01055513          	srli	a0,a0,0x10
800000f4:	fc079ce3          	bnez	a5,800000cc <crcu16+0x54>
800000f8:	00008067          	ret

800000fc <crcu32>:
800000fc:	00050713          	mv	a4,a0
80000100:	01071613          	slli	a2,a4,0x10
80000104:	ffffa8b7          	lui	a7,0xffffa
80000108:	00058513          	mv	a0,a1
8000010c:	01065613          	srli	a2,a2,0x10
80000110:	0ff77593          	zext.b	a1,a4
80000114:	00800793          	li	a5,8
80000118:	00188893          	addi	a7,a7,1 # ffffa001 <_end+0x7ffee001>
8000011c:	00a5c6b3          	xor	a3,a1,a0
80000120:	fff78793          	addi	a5,a5,-1
80000124:	00155513          	srli	a0,a0,0x1
80000128:	0016f693          	andi	a3,a3,1
8000012c:	0ff7f793          	zext.b	a5,a5
80000130:	01154833          	xor	a6,a0,a7
80000134:	0015d593          	srli	a1,a1,0x1
80000138:	00068663          	beqz	a3,80000144 <crcu32+0x48>
8000013c:	01081513          	slli	a0,a6,0x10
80000140:	01055513          	srli	a0,a0,0x10
80000144:	fc079ce3          	bnez	a5,8000011c <crcu32+0x20>
80000148:	ffffa837          	lui	a6,0xffffa
8000014c:	00865613          	srli	a2,a2,0x8
80000150:	00800793          	li	a5,8
80000154:	00180813          	addi	a6,a6,1 # ffffa001 <_end+0x7ffee001>
80000158:	00a646b3          	xor	a3,a2,a0
8000015c:	fff78793          	addi	a5,a5,-1
80000160:	00155513          	srli	a0,a0,0x1
80000164:	0016f693          	andi	a3,a3,1
80000168:	0ff7f793          	zext.b	a5,a5
8000016c:	010545b3          	xor	a1,a0,a6
80000170:	00165613          	srli	a2,a2,0x1
80000174:	00068663          	beqz	a3,80000180 <crcu32+0x84>
80000178:	01059513          	slli	a0,a1,0x10
8000017c:	01055513          	srli	a0,a0,0x10
80000180:	fc079ce3          	bnez	a5,80000158 <crcu32+0x5c>
80000184:	01075613          	srli	a2,a4,0x10
80000188:	ffffa837          	lui	a6,0xffffa
8000018c:	00060713          	mv	a4,a2
80000190:	00800793          	li	a5,8
80000194:	0ff67613          	zext.b	a2,a2
80000198:	00180813          	addi	a6,a6,1 # ffffa001 <_end+0x7ffee001>
8000019c:	00a646b3          	xor	a3,a2,a0
800001a0:	fff78793          	addi	a5,a5,-1
800001a4:	00155513          	srli	a0,a0,0x1
800001a8:	0016f693          	andi	a3,a3,1
800001ac:	0ff7f793          	zext.b	a5,a5
800001b0:	010545b3          	xor	a1,a0,a6
800001b4:	00165613          	srli	a2,a2,0x1
800001b8:	00068663          	beqz	a3,800001c4 <crcu32+0xc8>
800001bc:	01059513          	slli	a0,a1,0x10
800001c0:	01055513          	srli	a0,a0,0x10
800001c4:	fc079ce3          	bnez	a5,8000019c <crcu32+0xa0>
800001c8:	ffffa5b7          	lui	a1,0xffffa
800001cc:	00875713          	srli	a4,a4,0x8
800001d0:	00800793          	li	a5,8
800001d4:	00158593          	addi	a1,a1,1 # ffffa001 <_end+0x7ffee001>
800001d8:	00a746b3          	xor	a3,a4,a0
800001dc:	fff78793          	addi	a5,a5,-1
800001e0:	00155513          	srli	a0,a0,0x1
800001e4:	0016f693          	andi	a3,a3,1
800001e8:	0ff7f793          	zext.b	a5,a5
800001ec:	00b54633          	xor	a2,a0,a1
800001f0:	00175713          	srli	a4,a4,0x1
800001f4:	00068663          	beqz	a3,80000200 <crcu32+0x104>
800001f8:	01061513          	slli	a0,a2,0x10
800001fc:	01055513          	srli	a0,a0,0x10
80000200:	fc079ce3          	bnez	a5,800001d8 <crcu32+0xdc>
80000204:	00008067          	ret

80000208 <crc16>:
80000208:	00050693          	mv	a3,a0
8000020c:	01069613          	slli	a2,a3,0x10
80000210:	ffffa837          	lui	a6,0xffffa
80000214:	00058513          	mv	a0,a1
80000218:	01065613          	srli	a2,a2,0x10
8000021c:	0ff6f693          	zext.b	a3,a3
80000220:	00800793          	li	a5,8
80000224:	00180813          	addi	a6,a6,1 # ffffa001 <_end+0x7ffee001>
80000228:	00a6c733          	xor	a4,a3,a0
8000022c:	fff78793          	addi	a5,a5,-1
80000230:	00155513          	srli	a0,a0,0x1
80000234:	00177713          	andi	a4,a4,1
80000238:	0ff7f793          	zext.b	a5,a5
8000023c:	010545b3          	xor	a1,a0,a6
80000240:	0016d693          	srli	a3,a3,0x1
80000244:	00070663          	beqz	a4,80000250 <crc16+0x48>
80000248:	01059513          	slli	a0,a1,0x10
8000024c:	01055513          	srli	a0,a0,0x10
80000250:	fc079ce3          	bnez	a5,80000228 <crc16+0x20>
80000254:	ffffa5b7          	lui	a1,0xffffa
80000258:	00865693          	srli	a3,a2,0x8
8000025c:	00800793          	li	a5,8
80000260:	00158593          	addi	a1,a1,1 # ffffa001 <_end+0x7ffee001>
80000264:	00a6c733          	xor	a4,a3,a0
80000268:	fff78793          	addi	a5,a5,-1
8000026c:	00155513          	srli	a0,a0,0x1
80000270:	00177713          	andi	a4,a4,1
80000274:	0ff7f793          	zext.b	a5,a5
80000278:	00b54633          	xor	a2,a0,a1
8000027c:	0016d693          	srli	a3,a3,0x1
80000280:	00070663          	beqz	a4,8000028c <crc16+0x84>
80000284:	01061513          	slli	a0,a2,0x10
80000288:	01055513          	srli	a0,a0,0x10
8000028c:	fc079ce3          	bnez	a5,80000264 <crc16+0x5c>
80000290:	00008067          	ret

80000294 <check_data_types>:
80000294:	00000513          	li	a0,0
80000298:	00008067          	ret

8000029c <core_init_matrix>:
8000029c:	ff010113          	addi	sp,sp,-16
800002a0:	00812623          	sw	s0,12(sp)
800002a4:	00912423          	sw	s1,8(sp)
800002a8:	01212223          	sw	s2,4(sp)
800002ac:	01312023          	sw	s3,0(sp)
800002b0:	00050813          	mv	a6,a0
800002b4:	00068413          	mv	s0,a3
800002b8:	00061463          	bnez	a2,800002c0 <core_init_matrix+0x24>
800002bc:	00100613          	li	a2,1
800002c0:	fff58593          	addi	a1,a1,-1
800002c4:	ffc5f393          	andi	t2,a1,-4
800002c8:	00438913          	addi	s2,t2,4
800002cc:	00000793          	li	a5,0
800002d0:	10080063          	beqz	a6,800003d0 <core_init_matrix+0x134>
800002d4:	00078513          	mv	a0,a5
800002d8:	00178793          	addi	a5,a5,1
800002dc:	02f78733          	mul	a4,a5,a5
800002e0:	00371713          	slli	a4,a4,0x3
800002e4:	ff0768e3          	bltu	a4,a6,800002d4 <core_init_matrix+0x38>
800002e8:	02a506b3          	mul	a3,a0,a0
800002ec:	00050993          	mv	s3,a0
800002f0:	00169693          	slli	a3,a3,0x1
800002f4:	00d903b3          	add	t2,s2,a3
800002f8:	0a050063          	beqz	a0,80000398 <core_init_matrix+0xfc>
800002fc:	00010e37          	lui	t3,0x10
80000300:	00000293          	li	t0,0
80000304:	00000f93          	li	t6,0
80000308:	00100f13          	li	t5,1
8000030c:	40790eb3          	sub	t4,s2,t2
80000310:	fffe0e13          	addi	t3,t3,-1 # ffff <_entry_offset+0xffff>
80000314:	fff50493          	addi	s1,a0,-1
80000318:	00129593          	slli	a1,t0,0x1
8000031c:	007585b3          	add	a1,a1,t2
80000320:	000f0813          	mv	a6,t5
80000324:	00000893          	li	a7,0
80000328:	03060633          	mul	a2,a2,a6
8000032c:	01081793          	slli	a5,a6,0x10
80000330:	0107d793          	srli	a5,a5,0x10
80000334:	00be8333          	add	t1,t4,a1
80000338:	00258593          	addi	a1,a1,2
8000033c:	00188893          	addi	a7,a7,1
80000340:	00180813          	addi	a6,a6,1
80000344:	41f65713          	srai	a4,a2,0x1f
80000348:	01075713          	srli	a4,a4,0x10
8000034c:	00e60633          	add	a2,a2,a4
80000350:	01c67633          	and	a2,a2,t3
80000354:	40e60633          	sub	a2,a2,a4
80000358:	00c78733          	add	a4,a5,a2
8000035c:	01071713          	slli	a4,a4,0x10
80000360:	01075713          	srli	a4,a4,0x10
80000364:	00f707b3          	add	a5,a4,a5
80000368:	fee59f23          	sh	a4,-2(a1)
8000036c:	0ff7f793          	zext.b	a5,a5
80000370:	00f31023          	sh	a5,0(t1)
80000374:	faa8eae3          	bltu	a7,a0,80000328 <core_init_matrix+0x8c>
80000378:	001f0f13          	addi	t5,t5,1
8000037c:	00000793          	li	a5,0
80000380:	00050463          	beqz	a0,80000388 <core_init_matrix+0xec>
80000384:	00048793          	mv	a5,s1
80000388:	001f8f93          	addi	t6,t6,1
8000038c:	01e78f33          	add	t5,a5,t5
80000390:	00a282b3          	add	t0,t0,a0
80000394:	f8afe2e3          	bltu	t6,a0,80000318 <core_init_matrix+0x7c>
80000398:	00d387b3          	add	a5,t2,a3
8000039c:	fff78793          	addi	a5,a5,-1
800003a0:	ffc7f793          	andi	a5,a5,-4
800003a4:	00478793          	addi	a5,a5,4
800003a8:	01242223          	sw	s2,4(s0)
800003ac:	01342023          	sw	s3,0(s0)
800003b0:	00742423          	sw	t2,8(s0)
800003b4:	00f42623          	sw	a5,12(s0)
800003b8:	00c12403          	lw	s0,12(sp)
800003bc:	00812483          	lw	s1,8(sp)
800003c0:	00412903          	lw	s2,4(sp)
800003c4:	00012983          	lw	s3,0(sp)
800003c8:	01010113          	addi	sp,sp,16
800003cc:	00008067          	ret
800003d0:	00638393          	addi	t2,t2,6
800003d4:	fff00993          	li	s3,-1
800003d8:	fff00513          	li	a0,-1
800003dc:	00200693          	li	a3,2
800003e0:	f1dff06f          	j	800002fc <core_init_matrix+0x60>

800003e4 <matrix_mul_vect>:
800003e4:	04050a63          	beqz	a0,80000438 <matrix_mul_vect+0x54>
800003e8:	00251f13          	slli	t5,a0,0x2
800003ec:	00151e13          	slli	t3,a0,0x1
800003f0:	01e58f33          	add	t5,a1,t5
800003f4:	01c68e33          	add	t3,a3,t3
800003f8:	00000e93          	li	t4,0
800003fc:	001e9813          	slli	a6,t4,0x1
80000400:	01060833          	add	a6,a2,a6
80000404:	00068793          	mv	a5,a3
80000408:	00000893          	li	a7,0
8000040c:	00081703          	lh	a4,0(a6)
80000410:	00079303          	lh	t1,0(a5)
80000414:	00278793          	addi	a5,a5,2
80000418:	00280813          	addi	a6,a6,2
8000041c:	02670733          	mul	a4,a4,t1
80000420:	00e888b3          	add	a7,a7,a4
80000424:	fefe14e3          	bne	t3,a5,8000040c <matrix_mul_vect+0x28>
80000428:	0115a023          	sw	a7,0(a1)
8000042c:	00458593          	addi	a1,a1,4
80000430:	00ae8eb3          	add	t4,t4,a0
80000434:	fcbf14e3          	bne	t5,a1,800003fc <matrix_mul_vect+0x18>
80000438:	00008067          	ret

8000043c <matrix_mul_matrix>:
8000043c:	0a050463          	beqz	a0,800004e4 <matrix_mul_matrix+0xa8>
80000440:	ff010113          	addi	sp,sp,-16
80000444:	00050f13          	mv	t5,a0
80000448:	00151513          	slli	a0,a0,0x1
8000044c:	00812623          	sw	s0,12(sp)
80000450:	00058393          	mv	t2,a1
80000454:	00068413          	mv	s0,a3
80000458:	00060e93          	mv	t4,a2
8000045c:	00a60833          	add	a6,a2,a0
80000460:	00000f93          	li	t6,0
80000464:	00000293          	li	t0,0
80000468:	002f9893          	slli	a7,t6,0x2
8000046c:	011388b3          	add	a7,t2,a7
80000470:	00040313          	mv	t1,s0
80000474:	00000e13          	li	t3,0
80000478:	00030693          	mv	a3,t1
8000047c:	000e8793          	mv	a5,t4
80000480:	00000613          	li	a2,0
80000484:	00079703          	lh	a4,0(a5)
80000488:	00069583          	lh	a1,0(a3)
8000048c:	00278793          	addi	a5,a5,2
80000490:	00a686b3          	add	a3,a3,a0
80000494:	02b70733          	mul	a4,a4,a1
80000498:	00e60633          	add	a2,a2,a4
8000049c:	fef814e3          	bne	a6,a5,80000484 <matrix_mul_matrix+0x48>
800004a0:	00c8a023          	sw	a2,0(a7)
800004a4:	001e0793          	addi	a5,t3,1
800004a8:	00488893          	addi	a7,a7,4
800004ac:	00230313          	addi	t1,t1,2
800004b0:	00ff0663          	beq	t5,a5,800004bc <matrix_mul_matrix+0x80>
800004b4:	00078e13          	mv	t3,a5
800004b8:	fc1ff06f          	j	80000478 <matrix_mul_matrix+0x3c>
800004bc:	00128793          	addi	a5,t0,1
800004c0:	00ae8eb3          	add	t4,t4,a0
800004c4:	01ef8fb3          	add	t6,t6,t5
800004c8:	00a80833          	add	a6,a6,a0
800004cc:	01c28663          	beq	t0,t3,800004d8 <matrix_mul_matrix+0x9c>
800004d0:	00078293          	mv	t0,a5
800004d4:	f95ff06f          	j	80000468 <matrix_mul_matrix+0x2c>
800004d8:	00c12403          	lw	s0,12(sp)
800004dc:	01010113          	addi	sp,sp,16
800004e0:	00008067          	ret
800004e4:	00008067          	ret

800004e8 <matrix_mul_matrix_bitextract>:
800004e8:	0a050e63          	beqz	a0,800005a4 <matrix_mul_matrix_bitextract+0xbc>
800004ec:	ff010113          	addi	sp,sp,-16
800004f0:	00050f13          	mv	t5,a0
800004f4:	00151513          	slli	a0,a0,0x1
800004f8:	00812623          	sw	s0,12(sp)
800004fc:	00058393          	mv	t2,a1
80000500:	00068413          	mv	s0,a3
80000504:	00060e93          	mv	t4,a2
80000508:	00a60833          	add	a6,a2,a0
8000050c:	00000f93          	li	t6,0
80000510:	00000293          	li	t0,0
80000514:	002f9893          	slli	a7,t6,0x2
80000518:	011388b3          	add	a7,t2,a7
8000051c:	00040313          	mv	t1,s0
80000520:	00000e13          	li	t3,0
80000524:	00030613          	mv	a2,t1
80000528:	000e8693          	mv	a3,t4
8000052c:	00000593          	li	a1,0
80000530:	00061703          	lh	a4,0(a2)
80000534:	00069783          	lh	a5,0(a3)
80000538:	00268693          	addi	a3,a3,2
8000053c:	00a60633          	add	a2,a2,a0
80000540:	02e787b3          	mul	a5,a5,a4
80000544:	4027d713          	srai	a4,a5,0x2
80000548:	4057d793          	srai	a5,a5,0x5
8000054c:	00f77713          	andi	a4,a4,15
80000550:	07f7f793          	andi	a5,a5,127
80000554:	02f707b3          	mul	a5,a4,a5
80000558:	00f585b3          	add	a1,a1,a5
8000055c:	fcd81ae3          	bne	a6,a3,80000530 <matrix_mul_matrix_bitextract+0x48>
80000560:	00b8a023          	sw	a1,0(a7)
80000564:	001e0793          	addi	a5,t3,1
80000568:	00488893          	addi	a7,a7,4
8000056c:	00230313          	addi	t1,t1,2
80000570:	00ff0663          	beq	t5,a5,8000057c <matrix_mul_matrix_bitextract+0x94>
80000574:	00078e13          	mv	t3,a5
80000578:	fadff06f          	j	80000524 <matrix_mul_matrix_bitextract+0x3c>
8000057c:	00128793          	addi	a5,t0,1
80000580:	00ae8eb3          	add	t4,t4,a0
80000584:	01ef8fb3          	add	t6,t6,t5
80000588:	00a80833          	add	a6,a6,a0
8000058c:	01c28663          	beq	t0,t3,80000598 <matrix_mul_matrix_bitextract+0xb0>
80000590:	00078293          	mv	t0,a5
80000594:	f81ff06f          	j	80000514 <matrix_mul_matrix_bitextract+0x2c>
80000598:	00c12403          	lw	s0,12(sp)
8000059c:	01010113          	addi	sp,sp,16
800005a0:	00008067          	ret
800005a4:	00008067          	ret

800005a8 <matrix_test>:
800005a8:	fd010113          	addi	sp,sp,-48
800005ac:	02912223          	sw	s1,36(sp)
800005b0:	03212023          	sw	s2,32(sp)
800005b4:	01412c23          	sw	s4,24(sp)
800005b8:	01512a23          	sw	s5,20(sp)
800005bc:	fffff937          	lui	s2,0xfffff
800005c0:	02112623          	sw	ra,44(sp)
800005c4:	02812423          	sw	s0,40(sp)
800005c8:	01312e23          	sw	s3,28(sp)
800005cc:	01612823          	sw	s6,16(sp)
800005d0:	01712623          	sw	s7,12(sp)
800005d4:	01812423          	sw	s8,8(sp)
800005d8:	01912223          	sw	s9,4(sp)
800005dc:	01a12023          	sw	s10,0(sp)
800005e0:	00058a93          	mv	s5,a1
800005e4:	00060a13          	mv	s4,a2
800005e8:	00068493          	mv	s1,a3
800005ec:	01276933          	or	s2,a4,s2
800005f0:	38050263          	beqz	a0,80000974 <matrix_test+0x3cc>
800005f4:	00151313          	slli	t1,a0,0x1
800005f8:	00c305b3          	add	a1,t1,a2
800005fc:	40a00bb3          	neg	s7,a0
80000600:	01071993          	slli	s3,a4,0x10
80000604:	00050893          	mv	a7,a0
80000608:	0109d993          	srli	s3,s3,0x10
8000060c:	00058613          	mv	a2,a1
80000610:	00000b13          	li	s6,0
80000614:	002b9b93          	slli	s7,s7,0x2
80000618:	40660833          	sub	a6,a2,t1
8000061c:	00080793          	mv	a5,a6
80000620:	0007d683          	lhu	a3,0(a5)
80000624:	00278793          	addi	a5,a5,2
80000628:	00d986b3          	add	a3,s3,a3
8000062c:	fed79f23          	sh	a3,-2(a5)
80000630:	fec798e3          	bne	a5,a2,80000620 <matrix_test+0x78>
80000634:	001b0413          	addi	s0,s6,1
80000638:	41780633          	sub	a2,a6,s7
8000063c:	00888663          	beq	a7,s0,80000648 <matrix_test+0xa0>
80000640:	00040b13          	mv	s6,s0
80000644:	fd5ff06f          	j	80000618 <matrix_test+0x70>
80000648:	00000513          	li	a0,0
8000064c:	00000893          	li	a7,0
80000650:	40658833          	sub	a6,a1,t1
80000654:	00251613          	slli	a2,a0,0x2
80000658:	01560633          	add	a2,a2,s5
8000065c:	00080793          	mv	a5,a6
80000660:	00079683          	lh	a3,0(a5)
80000664:	00460613          	addi	a2,a2,4
80000668:	00278793          	addi	a5,a5,2
8000066c:	02e686b3          	mul	a3,a3,a4
80000670:	fed62e23          	sw	a3,-4(a2)
80000674:	feb796e3          	bne	a5,a1,80000660 <matrix_test+0xb8>
80000678:	00188793          	addi	a5,a7,1
8000067c:	00850533          	add	a0,a0,s0
80000680:	417805b3          	sub	a1,a6,s7
80000684:	01688663          	beq	a7,s6,80000690 <matrix_test+0xe8>
80000688:	00078893          	mv	a7,a5
8000068c:	fc5ff06f          	j	80000650 <matrix_test+0xa8>
80000690:	417a8c33          	sub	s8,s5,s7
80000694:	40800cb3          	neg	s9,s0
80000698:	000c0813          	mv	a6,s8
8000069c:	00000513          	li	a0,0
800006a0:	00000713          	li	a4,0
800006a4:	00000613          	li	a2,0
800006a8:	00000313          	li	t1,0
800006ac:	003c9c93          	slli	s9,s9,0x3
800006b0:	017808b3          	add	a7,a6,s7
800006b4:	00088793          	mv	a5,a7
800006b8:	0180006f          	j	800006d0 <matrix_test+0x128>
800006bc:	01059513          	slli	a0,a1,0x10
800006c0:	00478793          	addi	a5,a5,4
800006c4:	41055513          	srai	a0,a0,0x10
800006c8:	00000613          	li	a2,0
800006cc:	02f80c63          	beq	a6,a5,80000704 <matrix_test+0x15c>
800006d0:	00070693          	mv	a3,a4
800006d4:	0007a703          	lw	a4,0(a5)
800006d8:	01051513          	slli	a0,a0,0x10
800006dc:	01055513          	srli	a0,a0,0x10
800006e0:	00e6a6b3          	slt	a3,a3,a4
800006e4:	00e60633          	add	a2,a2,a4
800006e8:	00a50593          	addi	a1,a0,10
800006ec:	00d50533          	add	a0,a0,a3
800006f0:	fcc946e3          	blt	s2,a2,800006bc <matrix_test+0x114>
800006f4:	01051513          	slli	a0,a0,0x10
800006f8:	00478793          	addi	a5,a5,4
800006fc:	41055513          	srai	a0,a0,0x10
80000700:	fcf818e3          	bne	a6,a5,800006d0 <matrix_test+0x128>
80000704:	00130793          	addi	a5,t1,1
80000708:	41988833          	sub	a6,a7,s9
8000070c:	01630663          	beq	t1,s6,80000718 <matrix_test+0x170>
80000710:	00078313          	mv	t1,a5
80000714:	f9dff06f          	j	800006b0 <matrix_test+0x108>
80000718:	00000593          	li	a1,0
8000071c:	aedff0ef          	jal	ra,80000208 <crc16>
80000720:	000a0613          	mv	a2,s4
80000724:	00050d13          	mv	s10,a0
80000728:	00048693          	mv	a3,s1
8000072c:	00040513          	mv	a0,s0
80000730:	000a8593          	mv	a1,s5
80000734:	cb1ff0ef          	jal	ra,800003e4 <matrix_mul_vect>
80000738:	00000513          	li	a0,0
8000073c:	00000713          	li	a4,0
80000740:	00000613          	li	a2,0
80000744:	00000313          	li	t1,0
80000748:	017c08b3          	add	a7,s8,s7
8000074c:	00088793          	mv	a5,a7
80000750:	0180006f          	j	80000768 <matrix_test+0x1c0>
80000754:	01081513          	slli	a0,a6,0x10
80000758:	00478793          	addi	a5,a5,4
8000075c:	41055513          	srai	a0,a0,0x10
80000760:	00000613          	li	a2,0
80000764:	02fc0c63          	beq	s8,a5,8000079c <matrix_test+0x1f4>
80000768:	00070693          	mv	a3,a4
8000076c:	0007a703          	lw	a4,0(a5)
80000770:	01051513          	slli	a0,a0,0x10
80000774:	01055513          	srli	a0,a0,0x10
80000778:	00e6a6b3          	slt	a3,a3,a4
8000077c:	00e60633          	add	a2,a2,a4
80000780:	00a50813          	addi	a6,a0,10
80000784:	00d50533          	add	a0,a0,a3
80000788:	fcc946e3          	blt	s2,a2,80000754 <matrix_test+0x1ac>
8000078c:	01051513          	slli	a0,a0,0x10
80000790:	00478793          	addi	a5,a5,4
80000794:	41055513          	srai	a0,a0,0x10
80000798:	fcfc18e3          	bne	s8,a5,80000768 <matrix_test+0x1c0>
8000079c:	00130793          	addi	a5,t1,1
800007a0:	41988c33          	sub	s8,a7,s9
800007a4:	01630663          	beq	t1,s6,800007b0 <matrix_test+0x208>
800007a8:	00078313          	mv	t1,a5
800007ac:	f9dff06f          	j	80000748 <matrix_test+0x1a0>
800007b0:	000d0593          	mv	a1,s10
800007b4:	a55ff0ef          	jal	ra,80000208 <crc16>
800007b8:	00048693          	mv	a3,s1
800007bc:	00050b13          	mv	s6,a0
800007c0:	000a0613          	mv	a2,s4
800007c4:	00040513          	mv	a0,s0
800007c8:	000a8593          	mv	a1,s5
800007cc:	c71ff0ef          	jal	ra,8000043c <matrix_mul_matrix>
800007d0:	00000e13          	li	t3,0
800007d4:	00000513          	li	a0,0
800007d8:	00000793          	li	a5,0
800007dc:	00000693          	li	a3,0
800007e0:	00000313          	li	t1,0
800007e4:	002e1613          	slli	a2,t3,0x2
800007e8:	00ca8633          	add	a2,s5,a2
800007ec:	00000813          	li	a6,0
800007f0:	01c0006f          	j	8000080c <matrix_test+0x264>
800007f4:	01089513          	slli	a0,a7,0x10
800007f8:	00180813          	addi	a6,a6,1
800007fc:	41055513          	srai	a0,a0,0x10
80000800:	00000693          	li	a3,0
80000804:	00460613          	addi	a2,a2,4
80000808:	02887e63          	bgeu	a6,s0,80000844 <matrix_test+0x29c>
8000080c:	00078713          	mv	a4,a5
80000810:	00062783          	lw	a5,0(a2)
80000814:	01051513          	slli	a0,a0,0x10
80000818:	01055513          	srli	a0,a0,0x10
8000081c:	00f72733          	slt	a4,a4,a5
80000820:	00f686b3          	add	a3,a3,a5
80000824:	00a50893          	addi	a7,a0,10
80000828:	00e50533          	add	a0,a0,a4
8000082c:	fcd944e3          	blt	s2,a3,800007f4 <matrix_test+0x24c>
80000830:	01051513          	slli	a0,a0,0x10
80000834:	00180813          	addi	a6,a6,1
80000838:	41055513          	srai	a0,a0,0x10
8000083c:	00460613          	addi	a2,a2,4
80000840:	fc8866e3          	bltu	a6,s0,8000080c <matrix_test+0x264>
80000844:	00130313          	addi	t1,t1,1
80000848:	008e0e33          	add	t3,t3,s0
8000084c:	f8836ce3          	bltu	t1,s0,800007e4 <matrix_test+0x23c>
80000850:	000b0593          	mv	a1,s6
80000854:	9b5ff0ef          	jal	ra,80000208 <crc16>
80000858:	00050793          	mv	a5,a0
8000085c:	00048693          	mv	a3,s1
80000860:	00040513          	mv	a0,s0
80000864:	000a0613          	mv	a2,s4
80000868:	000a8593          	mv	a1,s5
8000086c:	00078493          	mv	s1,a5
80000870:	c79ff0ef          	jal	ra,800004e8 <matrix_mul_matrix_bitextract>
80000874:	00000e13          	li	t3,0
80000878:	00000513          	li	a0,0
8000087c:	00000793          	li	a5,0
80000880:	00000693          	li	a3,0
80000884:	00000313          	li	t1,0
80000888:	002e1613          	slli	a2,t3,0x2
8000088c:	00ca8633          	add	a2,s5,a2
80000890:	00000813          	li	a6,0
80000894:	01c0006f          	j	800008b0 <matrix_test+0x308>
80000898:	01089513          	slli	a0,a7,0x10
8000089c:	00180813          	addi	a6,a6,1
800008a0:	41055513          	srai	a0,a0,0x10
800008a4:	00000693          	li	a3,0
800008a8:	00460613          	addi	a2,a2,4
800008ac:	02887e63          	bgeu	a6,s0,800008e8 <matrix_test+0x340>
800008b0:	00078713          	mv	a4,a5
800008b4:	00062783          	lw	a5,0(a2)
800008b8:	01051513          	slli	a0,a0,0x10
800008bc:	01055513          	srli	a0,a0,0x10
800008c0:	00f72733          	slt	a4,a4,a5
800008c4:	00f686b3          	add	a3,a3,a5
800008c8:	00a50893          	addi	a7,a0,10
800008cc:	00e50533          	add	a0,a0,a4
800008d0:	fcd944e3          	blt	s2,a3,80000898 <matrix_test+0x2f0>
800008d4:	01051513          	slli	a0,a0,0x10
800008d8:	00180813          	addi	a6,a6,1
800008dc:	41055513          	srai	a0,a0,0x10
800008e0:	00460613          	addi	a2,a2,4
800008e4:	fc8866e3          	bltu	a6,s0,800008b0 <matrix_test+0x308>
800008e8:	00130313          	addi	t1,t1,1
800008ec:	008e0e33          	add	t3,t3,s0
800008f0:	f8836ce3          	bltu	t1,s0,80000888 <matrix_test+0x2e0>
800008f4:	00048593          	mv	a1,s1
800008f8:	911ff0ef          	jal	ra,80000208 <crc16>
800008fc:	00000593          	li	a1,0
80000900:	00000613          	li	a2,0
80000904:	00159793          	slli	a5,a1,0x1
80000908:	00fa07b3          	add	a5,s4,a5
8000090c:	00000693          	li	a3,0
80000910:	0007d703          	lhu	a4,0(a5)
80000914:	00278793          	addi	a5,a5,2
80000918:	00168693          	addi	a3,a3,1
8000091c:	41370733          	sub	a4,a4,s3
80000920:	fee79f23          	sh	a4,-2(a5)
80000924:	fe86e6e3          	bltu	a3,s0,80000910 <matrix_test+0x368>
80000928:	00160613          	addi	a2,a2,1
8000092c:	008585b3          	add	a1,a1,s0
80000930:	fc866ae3          	bltu	a2,s0,80000904 <matrix_test+0x35c>
80000934:	02c12083          	lw	ra,44(sp)
80000938:	02812403          	lw	s0,40(sp)
8000093c:	01051513          	slli	a0,a0,0x10
80000940:	02412483          	lw	s1,36(sp)
80000944:	02012903          	lw	s2,32(sp)
80000948:	01c12983          	lw	s3,28(sp)
8000094c:	01812a03          	lw	s4,24(sp)
80000950:	01412a83          	lw	s5,20(sp)
80000954:	01012b03          	lw	s6,16(sp)
80000958:	00c12b83          	lw	s7,12(sp)
8000095c:	00812c03          	lw	s8,8(sp)
80000960:	00412c83          	lw	s9,4(sp)
80000964:	00012d03          	lw	s10,0(sp)
80000968:	41055513          	srai	a0,a0,0x10
8000096c:	03010113          	addi	sp,sp,48
80000970:	00008067          	ret
80000974:	00000593          	li	a1,0
80000978:	891ff0ef          	jal	ra,80000208 <crc16>
8000097c:	00048693          	mv	a3,s1
80000980:	000a0613          	mv	a2,s4
80000984:	00050413          	mv	s0,a0
80000988:	000a8593          	mv	a1,s5
8000098c:	00000513          	li	a0,0
80000990:	a55ff0ef          	jal	ra,800003e4 <matrix_mul_vect>
80000994:	00040593          	mv	a1,s0
80000998:	00000513          	li	a0,0
8000099c:	86dff0ef          	jal	ra,80000208 <crc16>
800009a0:	00048693          	mv	a3,s1
800009a4:	000a0613          	mv	a2,s4
800009a8:	00050413          	mv	s0,a0
800009ac:	000a8593          	mv	a1,s5
800009b0:	00000513          	li	a0,0
800009b4:	a89ff0ef          	jal	ra,8000043c <matrix_mul_matrix>
800009b8:	00040593          	mv	a1,s0
800009bc:	00000513          	li	a0,0
800009c0:	849ff0ef          	jal	ra,80000208 <crc16>
800009c4:	00050413          	mv	s0,a0
800009c8:	000a8593          	mv	a1,s5
800009cc:	00048693          	mv	a3,s1
800009d0:	000a0613          	mv	a2,s4
800009d4:	00000513          	li	a0,0
800009d8:	b11ff0ef          	jal	ra,800004e8 <matrix_mul_matrix_bitextract>
800009dc:	00040593          	mv	a1,s0
800009e0:	00000513          	li	a0,0
800009e4:	825ff0ef          	jal	ra,80000208 <crc16>
800009e8:	f4dff06f          	j	80000934 <matrix_test+0x38c>

800009ec <core_bench_matrix>:
800009ec:	ff010113          	addi	sp,sp,-16
800009f0:	00812423          	sw	s0,8(sp)
800009f4:	00852683          	lw	a3,8(a0)
800009f8:	00060413          	mv	s0,a2
800009fc:	00058713          	mv	a4,a1
80000a00:	00452603          	lw	a2,4(a0)
80000a04:	00c52583          	lw	a1,12(a0)
80000a08:	00052503          	lw	a0,0(a0)
80000a0c:	00112623          	sw	ra,12(sp)
80000a10:	b99ff0ef          	jal	ra,800005a8 <matrix_test>
80000a14:	00040593          	mv	a1,s0
80000a18:	00812403          	lw	s0,8(sp)
80000a1c:	00c12083          	lw	ra,12(sp)
80000a20:	01010113          	addi	sp,sp,16
80000a24:	fe4ff06f          	j	80000208 <crc16>

80000a28 <cmp_idx>:
80000a28:	00060a63          	beqz	a2,80000a3c <cmp_idx+0x14>
80000a2c:	00251503          	lh	a0,2(a0)
80000a30:	00259783          	lh	a5,2(a1)
80000a34:	40f50533          	sub	a0,a0,a5
80000a38:	00008067          	ret
80000a3c:	00051783          	lh	a5,0(a0)
80000a40:	01079713          	slli	a4,a5,0x10
80000a44:	01075713          	srli	a4,a4,0x10
80000a48:	00875713          	srli	a4,a4,0x8
80000a4c:	f007f793          	andi	a5,a5,-256
80000a50:	00e7e7b3          	or	a5,a5,a4
80000a54:	00f51023          	sh	a5,0(a0)
80000a58:	00059783          	lh	a5,0(a1)
80000a5c:	00251503          	lh	a0,2(a0)
80000a60:	01079713          	slli	a4,a5,0x10
80000a64:	01075713          	srli	a4,a4,0x10
80000a68:	00875713          	srli	a4,a4,0x8
80000a6c:	f007f793          	andi	a5,a5,-256
80000a70:	00e7e7b3          	or	a5,a5,a4
80000a74:	00f59023          	sh	a5,0(a1)
80000a78:	00259783          	lh	a5,2(a1)
80000a7c:	40f50533          	sub	a0,a0,a5
80000a80:	00008067          	ret

80000a84 <calc_func>:
80000a84:	fe010113          	addi	sp,sp,-32
80000a88:	00812c23          	sw	s0,24(sp)
80000a8c:	00051403          	lh	s0,0(a0)
80000a90:	00112e23          	sw	ra,28(sp)
80000a94:	00912a23          	sw	s1,20(sp)
80000a98:	40745793          	srai	a5,s0,0x7
80000a9c:	01212823          	sw	s2,16(sp)
80000aa0:	01312623          	sw	s3,12(sp)
80000aa4:	0017f793          	andi	a5,a5,1
80000aa8:	02078263          	beqz	a5,80000acc <calc_func+0x48>
80000aac:	01c12083          	lw	ra,28(sp)
80000ab0:	07f47513          	andi	a0,s0,127
80000ab4:	01812403          	lw	s0,24(sp)
80000ab8:	01412483          	lw	s1,20(sp)
80000abc:	01012903          	lw	s2,16(sp)
80000ac0:	00c12983          	lw	s3,12(sp)
80000ac4:	02010113          	addi	sp,sp,32
80000ac8:	00008067          	ret
80000acc:	40345713          	srai	a4,s0,0x3
80000ad0:	00f77713          	andi	a4,a4,15
80000ad4:	00058493          	mv	s1,a1
80000ad8:	00747693          	andi	a3,s0,7
80000adc:	00471593          	slli	a1,a4,0x4
80000ae0:	0384d783          	lhu	a5,56(s1)
80000ae4:	00050993          	mv	s3,a0
80000ae8:	00e5e5b3          	or	a1,a1,a4
80000aec:	04068c63          	beqz	a3,80000b44 <calc_func+0xc0>
80000af0:	00100713          	li	a4,1
80000af4:	08e68a63          	beq	a3,a4,80000b88 <calc_func+0x104>
80000af8:	01041513          	slli	a0,s0,0x10
80000afc:	01055513          	srli	a0,a0,0x10
80000b00:	00040913          	mv	s2,s0
80000b04:	00078593          	mv	a1,a5
80000b08:	d70ff0ef          	jal	ra,80000078 <crcu16>
80000b0c:	00050793          	mv	a5,a0
80000b10:	f0047413          	andi	s0,s0,-256
80000b14:	07f97513          	andi	a0,s2,127
80000b18:	00856433          	or	s0,a0,s0
80000b1c:	02f49c23          	sh	a5,56(s1)
80000b20:	08046413          	ori	s0,s0,128
80000b24:	00899023          	sh	s0,0(s3)
80000b28:	01c12083          	lw	ra,28(sp)
80000b2c:	01812403          	lw	s0,24(sp)
80000b30:	01412483          	lw	s1,20(sp)
80000b34:	01012903          	lw	s2,16(sp)
80000b38:	00c12983          	lw	s3,12(sp)
80000b3c:	02010113          	addi	sp,sp,32
80000b40:	00008067          	ret
80000b44:	02200693          	li	a3,34
80000b48:	00058713          	mv	a4,a1
80000b4c:	00d5d463          	bge	a1,a3,80000b54 <calc_func+0xd0>
80000b50:	02200713          	li	a4,34
80000b54:	00249683          	lh	a3,2(s1)
80000b58:	00049603          	lh	a2,0(s1)
80000b5c:	0144a583          	lw	a1,20(s1)
80000b60:	0184a503          	lw	a0,24(s1)
80000b64:	0ff77713          	zext.b	a4,a4
80000b68:	380010ef          	jal	ra,80001ee8 <core_bench_state>
80000b6c:	03e4d783          	lhu	a5,62(s1)
80000b70:	01051913          	slli	s2,a0,0x10
80000b74:	41095913          	srai	s2,s2,0x10
80000b78:	02079c63          	bnez	a5,80000bb0 <calc_func+0x12c>
80000b7c:	0384d783          	lhu	a5,56(s1)
80000b80:	02a49f23          	sh	a0,62(s1)
80000b84:	f81ff06f          	j	80000b04 <calc_func+0x80>
80000b88:	00078613          	mv	a2,a5
80000b8c:	02848513          	addi	a0,s1,40
80000b90:	e5dff0ef          	jal	ra,800009ec <core_bench_matrix>
80000b94:	03c4d783          	lhu	a5,60(s1)
80000b98:	01051913          	slli	s2,a0,0x10
80000b9c:	41095913          	srai	s2,s2,0x10
80000ba0:	00079863          	bnez	a5,80000bb0 <calc_func+0x12c>
80000ba4:	0384d783          	lhu	a5,56(s1)
80000ba8:	02a49e23          	sh	a0,60(s1)
80000bac:	f59ff06f          	j	80000b04 <calc_func+0x80>
80000bb0:	0384d783          	lhu	a5,56(s1)
80000bb4:	f51ff06f          	j	80000b04 <calc_func+0x80>

80000bb8 <cmp_complex>:
80000bb8:	ff010113          	addi	sp,sp,-16
80000bbc:	00912223          	sw	s1,4(sp)
80000bc0:	00058493          	mv	s1,a1
80000bc4:	00060593          	mv	a1,a2
80000bc8:	00112623          	sw	ra,12(sp)
80000bcc:	00812423          	sw	s0,8(sp)
80000bd0:	00060413          	mv	s0,a2
80000bd4:	eb1ff0ef          	jal	ra,80000a84 <calc_func>
80000bd8:	00050793          	mv	a5,a0
80000bdc:	00040593          	mv	a1,s0
80000be0:	00048513          	mv	a0,s1
80000be4:	00078413          	mv	s0,a5
80000be8:	e9dff0ef          	jal	ra,80000a84 <calc_func>
80000bec:	00c12083          	lw	ra,12(sp)
80000bf0:	40a40533          	sub	a0,s0,a0
80000bf4:	00812403          	lw	s0,8(sp)
80000bf8:	00412483          	lw	s1,4(sp)
80000bfc:	01010113          	addi	sp,sp,16
80000c00:	00008067          	ret

80000c04 <core_list_mergesort>:
80000c04:	fd010113          	addi	sp,sp,-48
80000c08:	02912223          	sw	s1,36(sp)
80000c0c:	01512a23          	sw	s5,20(sp)
80000c10:	01712623          	sw	s7,12(sp)
80000c14:	01912223          	sw	s9,4(sp)
80000c18:	01a12023          	sw	s10,0(sp)
80000c1c:	02112623          	sw	ra,44(sp)
80000c20:	02812423          	sw	s0,40(sp)
80000c24:	03212023          	sw	s2,32(sp)
80000c28:	01312e23          	sw	s3,28(sp)
80000c2c:	01412c23          	sw	s4,24(sp)
80000c30:	01612823          	sw	s6,16(sp)
80000c34:	01812423          	sw	s8,8(sp)
80000c38:	00050493          	mv	s1,a0
80000c3c:	00058b93          	mv	s7,a1
80000c40:	00060d13          	mv	s10,a2
80000c44:	00100a93          	li	s5,1
80000c48:	00100c93          	li	s9,1
80000c4c:	0c048063          	beqz	s1,80000d0c <core_list_mergesort+0x108>
80000c50:	00000c13          	li	s8,0
80000c54:	00000913          	li	s2,0
80000c58:	00000b13          	li	s6,0
80000c5c:	001c0c13          	addi	s8,s8,1
80000c60:	00048793          	mv	a5,s1
80000c64:	00000413          	li	s0,0
80000c68:	0007a783          	lw	a5,0(a5)
80000c6c:	00140413          	addi	s0,s0,1
80000c70:	00078463          	beqz	a5,80000c78 <core_list_mergesort+0x74>
80000c74:	fe8a9ae3          	bne	s5,s0,80000c68 <core_list_mergesort+0x64>
80000c78:	00048a13          	mv	s4,s1
80000c7c:	000a8993          	mv	s3,s5
80000c80:	00078493          	mv	s1,a5
80000c84:	02040e63          	beqz	s0,80000cc0 <core_list_mergesort+0xbc>
80000c88:	04098e63          	beqz	s3,80000ce4 <core_list_mergesort+0xe0>
80000c8c:	04048c63          	beqz	s1,80000ce4 <core_list_mergesort+0xe0>
80000c90:	0044a583          	lw	a1,4(s1)
80000c94:	004a2503          	lw	a0,4(s4)
80000c98:	000d0613          	mv	a2,s10
80000c9c:	000b80e7          	jalr	s7
80000ca0:	04a05263          	blez	a0,80000ce4 <core_list_mergesort+0xe0>
80000ca4:	00048793          	mv	a5,s1
80000ca8:	0004a483          	lw	s1,0(s1)
80000cac:	fff98993          	addi	s3,s3,-1
80000cb0:	02090463          	beqz	s2,80000cd8 <core_list_mergesort+0xd4>
80000cb4:	00f92023          	sw	a5,0(s2) # fffff000 <_end+0x7fff3000>
80000cb8:	00078913          	mv	s2,a5
80000cbc:	fc0416e3          	bnez	s0,80000c88 <core_list_mergesort+0x84>
80000cc0:	02098a63          	beqz	s3,80000cf4 <core_list_mergesort+0xf0>
80000cc4:	02048a63          	beqz	s1,80000cf8 <core_list_mergesort+0xf4>
80000cc8:	00048793          	mv	a5,s1
80000ccc:	fff98993          	addi	s3,s3,-1
80000cd0:	0004a483          	lw	s1,0(s1)
80000cd4:	fe0910e3          	bnez	s2,80000cb4 <core_list_mergesort+0xb0>
80000cd8:	00078b13          	mv	s6,a5
80000cdc:	00078913          	mv	s2,a5
80000ce0:	fddff06f          	j	80000cbc <core_list_mergesort+0xb8>
80000ce4:	000a0793          	mv	a5,s4
80000ce8:	fff40413          	addi	s0,s0,-1
80000cec:	000a2a03          	lw	s4,0(s4)
80000cf0:	fc1ff06f          	j	80000cb0 <core_list_mergesort+0xac>
80000cf4:	f60494e3          	bnez	s1,80000c5c <core_list_mergesort+0x58>
80000cf8:	00092023          	sw	zero,0(s2)
80000cfc:	019c0c63          	beq	s8,s9,80000d14 <core_list_mergesort+0x110>
80000d00:	001a9a93          	slli	s5,s5,0x1
80000d04:	000b0493          	mv	s1,s6
80000d08:	f45ff06f          	j	80000c4c <core_list_mergesort+0x48>
80000d0c:	00002023          	sw	zero,0(zero) # 0 <_entry_offset>
80000d10:	00100073          	ebreak
80000d14:	02c12083          	lw	ra,44(sp)
80000d18:	02812403          	lw	s0,40(sp)
80000d1c:	02412483          	lw	s1,36(sp)
80000d20:	02012903          	lw	s2,32(sp)
80000d24:	01c12983          	lw	s3,28(sp)
80000d28:	01812a03          	lw	s4,24(sp)
80000d2c:	01412a83          	lw	s5,20(sp)
80000d30:	00c12b83          	lw	s7,12(sp)
80000d34:	00812c03          	lw	s8,8(sp)
80000d38:	00412c83          	lw	s9,4(sp)
80000d3c:	00012d03          	lw	s10,0(sp)
80000d40:	000b0513          	mv	a0,s6
80000d44:	01012b03          	lw	s6,16(sp)
80000d48:	03010113          	addi	sp,sp,48
80000d4c:	00008067          	ret

80000d50 <core_bench_list>:
80000d50:	00050613          	mv	a2,a0
80000d54:	00451503          	lh	a0,4(a0)
80000d58:	fe010113          	addi	sp,sp,-32
80000d5c:	00812c23          	sw	s0,24(sp)
80000d60:	00912a23          	sw	s1,20(sp)
80000d64:	00112e23          	sw	ra,28(sp)
80000d68:	01212823          	sw	s2,16(sp)
80000d6c:	01312623          	sw	s3,12(sp)
80000d70:	01412423          	sw	s4,8(sp)
80000d74:	01512223          	sw	s5,4(sp)
80000d78:	02462403          	lw	s0,36(a2)
80000d7c:	00058493          	mv	s1,a1
80000d80:	24a05463          	blez	a0,80000fc8 <core_bench_list+0x278>
80000d84:	00000893          	li	a7,0
80000d88:	00000e13          	li	t3,0
80000d8c:	00000313          	li	t1,0
80000d90:	00000813          	li	a6,0
80000d94:	0ff8fa13          	zext.b	s4,a7
80000d98:	1e04c263          	bltz	s1,80000f7c <core_bench_list+0x22c>
80000d9c:	22040c63          	beqz	s0,80000fd4 <core_bench_list+0x284>
80000da0:	00040793          	mv	a5,s0
80000da4:	00c0006f          	j	80000db0 <core_bench_list+0x60>
80000da8:	0007a783          	lw	a5,0(a5)
80000dac:	00078863          	beqz	a5,80000dbc <core_bench_list+0x6c>
80000db0:	0047a703          	lw	a4,4(a5)
80000db4:	00271703          	lh	a4,2(a4)
80000db8:	fe9718e3          	bne	a4,s1,80000da8 <core_bench_list+0x58>
80000dbc:	00000693          	li	a3,0
80000dc0:	00c0006f          	j	80000dcc <core_bench_list+0x7c>
80000dc4:	00040693          	mv	a3,s0
80000dc8:	00070413          	mv	s0,a4
80000dcc:	00042703          	lw	a4,0(s0)
80000dd0:	00d42023          	sw	a3,0(s0)
80000dd4:	fe0718e3          	bnez	a4,80000dc4 <core_bench_list+0x74>
80000dd8:	1c078463          	beqz	a5,80000fa0 <core_bench_list+0x250>
80000ddc:	0047a703          	lw	a4,4(a5)
80000de0:	00130313          	addi	t1,t1,1
80000de4:	01031313          	slli	t1,t1,0x10
80000de8:	00071703          	lh	a4,0(a4)
80000dec:	01035313          	srli	t1,t1,0x10
80000df0:	00177693          	andi	a3,a4,1
80000df4:	00068c63          	beqz	a3,80000e0c <core_bench_list+0xbc>
80000df8:	40975713          	srai	a4,a4,0x9
80000dfc:	00177713          	andi	a4,a4,1
80000e00:	00e80733          	add	a4,a6,a4
80000e04:	01071813          	slli	a6,a4,0x10
80000e08:	01085813          	srli	a6,a6,0x10
80000e0c:	0007a703          	lw	a4,0(a5)
80000e10:	00070c63          	beqz	a4,80000e28 <core_bench_list+0xd8>
80000e14:	00072683          	lw	a3,0(a4)
80000e18:	00d7a023          	sw	a3,0(a5)
80000e1c:	00042783          	lw	a5,0(s0)
80000e20:	00f72023          	sw	a5,0(a4)
80000e24:	00e42023          	sw	a4,0(s0)
80000e28:	0004c863          	bltz	s1,80000e38 <core_bench_list+0xe8>
80000e2c:	00148493          	addi	s1,s1,1
80000e30:	01049493          	slli	s1,s1,0x10
80000e34:	4104d493          	srai	s1,s1,0x10
80000e38:	00188893          	addi	a7,a7,1
80000e3c:	01089893          	slli	a7,a7,0x10
80000e40:	4108d893          	srai	a7,a7,0x10
80000e44:	f51518e3          	bne	a0,a7,80000d94 <core_bench_list+0x44>
80000e48:	00231793          	slli	a5,t1,0x2
80000e4c:	41c787b3          	sub	a5,a5,t3
80000e50:	00f80833          	add	a6,a6,a5
80000e54:	01081913          	slli	s2,a6,0x10
80000e58:	01095913          	srli	s2,s2,0x10
80000e5c:	00b05c63          	blez	a1,80000e74 <core_bench_list+0x124>
80000e60:	00040513          	mv	a0,s0
80000e64:	00000597          	auipc	a1,0x0
80000e68:	d5458593          	addi	a1,a1,-684 # 80000bb8 <cmp_complex>
80000e6c:	d99ff0ef          	jal	ra,80000c04 <core_list_mergesort>
80000e70:	00050413          	mv	s0,a0
80000e74:	00042783          	lw	a5,0(s0)
80000e78:	00040993          	mv	s3,s0
80000e7c:	0007aa83          	lw	s5,0(a5)
80000e80:	0047a703          	lw	a4,4(a5)
80000e84:	004aa603          	lw	a2,4(s5)
80000e88:	000aa683          	lw	a3,0(s5)
80000e8c:	00c7a223          	sw	a2,4(a5)
80000e90:	00eaa223          	sw	a4,4(s5)
80000e94:	00d7a023          	sw	a3,0(a5)
80000e98:	000aa023          	sw	zero,0(s5)
80000e9c:	0c04c063          	bltz	s1,80000f5c <core_bench_list+0x20c>
80000ea0:	0049a783          	lw	a5,4(s3)
80000ea4:	00279783          	lh	a5,2(a5)
80000ea8:	00978a63          	beq	a5,s1,80000ebc <core_bench_list+0x16c>
80000eac:	0009a983          	lw	s3,0(s3)
80000eb0:	fe0998e3          	bnez	s3,80000ea0 <core_bench_list+0x150>
80000eb4:	00042983          	lw	s3,0(s0)
80000eb8:	02098463          	beqz	s3,80000ee0 <core_bench_list+0x190>
80000ebc:	00442783          	lw	a5,4(s0)
80000ec0:	00090593          	mv	a1,s2
80000ec4:	00079503          	lh	a0,0(a5)
80000ec8:	b40ff0ef          	jal	ra,80000208 <crc16>
80000ecc:	0009a983          	lw	s3,0(s3)
80000ed0:	00050913          	mv	s2,a0
80000ed4:	fe0994e3          	bnez	s3,80000ebc <core_bench_list+0x16c>
80000ed8:	00042983          	lw	s3,0(s0)
80000edc:	004aa703          	lw	a4,4(s5)
80000ee0:	0049a683          	lw	a3,4(s3)
80000ee4:	0009a783          	lw	a5,0(s3)
80000ee8:	00040513          	mv	a0,s0
80000eec:	00daa223          	sw	a3,4(s5)
80000ef0:	00e9a223          	sw	a4,4(s3)
80000ef4:	00faa023          	sw	a5,0(s5)
80000ef8:	00000613          	li	a2,0
80000efc:	0159a023          	sw	s5,0(s3)
80000f00:	00000597          	auipc	a1,0x0
80000f04:	b2858593          	addi	a1,a1,-1240 # 80000a28 <cmp_idx>
80000f08:	cfdff0ef          	jal	ra,80000c04 <core_list_mergesort>
80000f0c:	00052403          	lw	s0,0(a0)
80000f10:	00050493          	mv	s1,a0
80000f14:	02040063          	beqz	s0,80000f34 <core_bench_list+0x1e4>
80000f18:	0044a783          	lw	a5,4(s1)
80000f1c:	00090593          	mv	a1,s2
80000f20:	00079503          	lh	a0,0(a5)
80000f24:	ae4ff0ef          	jal	ra,80000208 <crc16>
80000f28:	00042403          	lw	s0,0(s0)
80000f2c:	00050913          	mv	s2,a0
80000f30:	fe0414e3          	bnez	s0,80000f18 <core_bench_list+0x1c8>
80000f34:	01c12083          	lw	ra,28(sp)
80000f38:	01812403          	lw	s0,24(sp)
80000f3c:	01412483          	lw	s1,20(sp)
80000f40:	00c12983          	lw	s3,12(sp)
80000f44:	00812a03          	lw	s4,8(sp)
80000f48:	00412a83          	lw	s5,4(sp)
80000f4c:	00090513          	mv	a0,s2
80000f50:	01012903          	lw	s2,16(sp)
80000f54:	02010113          	addi	sp,sp,32
80000f58:	00008067          	ret
80000f5c:	0049a783          	lw	a5,4(s3)
80000f60:	0007c783          	lbu	a5,0(a5)
80000f64:	f5478ce3          	beq	a5,s4,80000ebc <core_bench_list+0x16c>
80000f68:	0009a983          	lw	s3,0(s3)
80000f6c:	fe0998e3          	bnez	s3,80000f5c <core_bench_list+0x20c>
80000f70:	00042983          	lw	s3,0(s0)
80000f74:	f40994e3          	bnez	s3,80000ebc <core_bench_list+0x16c>
80000f78:	f69ff06f          	j	80000ee0 <core_bench_list+0x190>
80000f7c:	04040c63          	beqz	s0,80000fd4 <core_bench_list+0x284>
80000f80:	00040793          	mv	a5,s0
80000f84:	00c0006f          	j	80000f90 <core_bench_list+0x240>
80000f88:	0007a783          	lw	a5,0(a5)
80000f8c:	e20788e3          	beqz	a5,80000dbc <core_bench_list+0x6c>
80000f90:	0047a703          	lw	a4,4(a5)
80000f94:	00074703          	lbu	a4,0(a4)
80000f98:	ff4718e3          	bne	a4,s4,80000f88 <core_bench_list+0x238>
80000f9c:	e21ff06f          	j	80000dbc <core_bench_list+0x6c>
80000fa0:	0046a783          	lw	a5,4(a3)
80000fa4:	001e0e13          	addi	t3,t3,1
80000fa8:	010e1e13          	slli	t3,t3,0x10
80000fac:	00178783          	lb	a5,1(a5)
80000fb0:	010e5e13          	srli	t3,t3,0x10
80000fb4:	0017f793          	andi	a5,a5,1
80000fb8:	00f807b3          	add	a5,a6,a5
80000fbc:	01079813          	slli	a6,a5,0x10
80000fc0:	01085813          	srli	a6,a6,0x10
80000fc4:	e65ff06f          	j	80000e28 <core_bench_list+0xd8>
80000fc8:	00000913          	li	s2,0
80000fcc:	00000a13          	li	s4,0
80000fd0:	e8dff06f          	j	80000e5c <core_bench_list+0x10c>
80000fd4:	00002783          	lw	a5,0(zero) # 0 <_entry_offset>
80000fd8:	00100073          	ebreak

80000fdc <core_list_init>:
80000fdc:	01400793          	li	a5,20
80000fe0:	02f55e33          	divu	t3,a0,a5
80000fe4:	ffff87b7          	lui	a5,0xffff8
80000fe8:	0005a023          	sw	zero,0(a1)
80000fec:	08078713          	addi	a4,a5,128 # ffff8080 <_end+0x7ffec080>
80000ff0:	01058693          	addi	a3,a1,16
80000ff4:	00058513          	mv	a0,a1
80000ff8:	00858313          	addi	t1,a1,8
80000ffc:	ffee0e13          	addi	t3,t3,-2
80001000:	003e1f13          	slli	t5,t3,0x3
80001004:	01e58f33          	add	t5,a1,t5
80001008:	01e5a223          	sw	t5,4(a1)
8000100c:	002e1f93          	slli	t6,t3,0x2
80001010:	00ef1023          	sh	a4,0(t5)
80001014:	000f1123          	sh	zero,2(t5)
80001018:	01ff0fb3          	add	t6,t5,t6
8000101c:	004f0713          	addi	a4,t5,4
80001020:	13e6fe63          	bgeu	a3,t5,8000115c <core_list_init+0x180>
80001024:	008f0893          	addi	a7,t5,8
80001028:	13f8fa63          	bgeu	a7,t6,8000115c <core_list_init+0x180>
8000102c:	00e5a623          	sw	a4,12(a1)
80001030:	0005a423          	sw	zero,8(a1)
80001034:	0065a023          	sw	t1,0(a1)
80001038:	fff7c793          	not	a5,a5
8000103c:	fff00713          	li	a4,-1
80001040:	00ef1223          	sh	a4,4(t5)
80001044:	00ff1323          	sh	a5,6(t5)
80001048:	060e0a63          	beqz	t3,800010bc <core_list_init+0xe0>
8000104c:	01061293          	slli	t0,a2,0x10
80001050:	ffff83b7          	lui	t2,0xffff8
80001054:	0102d293          	srli	t0,t0,0x10
80001058:	00000813          	li	a6,0
8000105c:	fff3c393          	not	t2,t2
80001060:	01081713          	slli	a4,a6,0x10
80001064:	01075713          	srli	a4,a4,0x10
80001068:	005747b3          	xor	a5,a4,t0
8000106c:	00379793          	slli	a5,a5,0x3
80001070:	00777713          	andi	a4,a4,7
80001074:	0787f793          	andi	a5,a5,120
80001078:	00e7e7b3          	or	a5,a5,a4
8000107c:	00879713          	slli	a4,a5,0x8
80001080:	00868593          	addi	a1,a3,8
80001084:	00180813          	addi	a6,a6,1
80001088:	00488e93          	addi	t4,a7,4
8000108c:	00f76733          	or	a4,a4,a5
80001090:	03e5f463          	bgeu	a1,t5,800010b8 <core_list_init+0xdc>
80001094:	03fef263          	bgeu	t4,t6,800010b8 <core_list_init+0xdc>
80001098:	0066a023          	sw	t1,0(a3)
8000109c:	00d52023          	sw	a3,0(a0)
800010a0:	0116a223          	sw	a7,4(a3)
800010a4:	00e89023          	sh	a4,0(a7)
800010a8:	00789123          	sh	t2,2(a7)
800010ac:	00068313          	mv	t1,a3
800010b0:	000e8893          	mv	a7,t4
800010b4:	00058693          	mv	a3,a1
800010b8:	fb0e14e3          	bne	t3,a6,80001060 <core_list_init+0x84>
800010bc:	00032803          	lw	a6,0(t1)
800010c0:	08080663          	beqz	a6,8000114c <core_list_init+0x170>
800010c4:	00500793          	li	a5,5
800010c8:	00004eb7          	lui	t4,0x4
800010cc:	02fe5e33          	divu	t3,t3,a5
800010d0:	20000713          	li	a4,512
800010d4:	00100693          	li	a3,1
800010d8:	fffe8e93          	addi	t4,t4,-1 # 3fff <_entry_offset+0x3fff>
800010dc:	0300006f          	j	8000110c <core_list_init+0x130>
800010e0:	01069793          	slli	a5,a3,0x10
800010e4:	00082883          	lw	a7,0(a6)
800010e8:	4107d793          	srai	a5,a5,0x10
800010ec:	10070713          	addi	a4,a4,256
800010f0:	01071713          	slli	a4,a4,0x10
800010f4:	00f59123          	sh	a5,2(a1)
800010f8:	00080313          	mv	t1,a6
800010fc:	00168693          	addi	a3,a3,1
80001100:	01075713          	srli	a4,a4,0x10
80001104:	04088463          	beqz	a7,8000114c <core_list_init+0x170>
80001108:	00088813          	mv	a6,a7
8000110c:	00d645b3          	xor	a1,a2,a3
80001110:	70077793          	andi	a5,a4,1792
80001114:	00b7e7b3          	or	a5,a5,a1
80001118:	01d7f7b3          	and	a5,a5,t4
8000111c:	00432583          	lw	a1,4(t1)
80001120:	fdc6e0e3          	bltu	a3,t3,800010e0 <core_list_init+0x104>
80001124:	00082883          	lw	a7,0(a6)
80001128:	01079793          	slli	a5,a5,0x10
8000112c:	4107d793          	srai	a5,a5,0x10
80001130:	10070713          	addi	a4,a4,256
80001134:	01071713          	slli	a4,a4,0x10
80001138:	00f59123          	sh	a5,2(a1)
8000113c:	00080313          	mv	t1,a6
80001140:	00168693          	addi	a3,a3,1
80001144:	01075713          	srli	a4,a4,0x10
80001148:	fc0890e3          	bnez	a7,80001108 <core_list_init+0x12c>
8000114c:	00000613          	li	a2,0
80001150:	00000597          	auipc	a1,0x0
80001154:	8d858593          	addi	a1,a1,-1832 # 80000a28 <cmp_idx>
80001158:	aadff06f          	j	80000c04 <core_list_mergesort>
8000115c:	00030693          	mv	a3,t1
80001160:	00070893          	mv	a7,a4
80001164:	00000313          	li	t1,0
80001168:	ee1ff06f          	j	80001048 <core_list_init+0x6c>

8000116c <iterate>:
8000116c:	ff010113          	addi	sp,sp,-16
80001170:	01212023          	sw	s2,0(sp)
80001174:	01c52903          	lw	s2,28(a0)
80001178:	00112623          	sw	ra,12(sp)
8000117c:	00812423          	sw	s0,8(sp)
80001180:	00912223          	sw	s1,4(sp)
80001184:	02052c23          	sw	zero,56(a0)
80001188:	02052e23          	sw	zero,60(a0)
8000118c:	04090663          	beqz	s2,800011d8 <iterate+0x6c>
80001190:	00050413          	mv	s0,a0
80001194:	00000493          	li	s1,0
80001198:	00100593          	li	a1,1
8000119c:	00040513          	mv	a0,s0
800011a0:	bb1ff0ef          	jal	ra,80000d50 <core_bench_list>
800011a4:	03845583          	lhu	a1,56(s0)
800011a8:	ed1fe0ef          	jal	ra,80000078 <crcu16>
800011ac:	fff00593          	li	a1,-1
800011b0:	02a41c23          	sh	a0,56(s0)
800011b4:	00040513          	mv	a0,s0
800011b8:	b99ff0ef          	jal	ra,80000d50 <core_bench_list>
800011bc:	03845583          	lhu	a1,56(s0)
800011c0:	eb9fe0ef          	jal	ra,80000078 <crcu16>
800011c4:	02a41c23          	sh	a0,56(s0)
800011c8:	00049463          	bnez	s1,800011d0 <iterate+0x64>
800011cc:	02a41d23          	sh	a0,58(s0)
800011d0:	00148493          	addi	s1,s1,1
800011d4:	fc9912e3          	bne	s2,s1,80001198 <iterate+0x2c>
800011d8:	00c12083          	lw	ra,12(sp)
800011dc:	00812403          	lw	s0,8(sp)
800011e0:	00412483          	lw	s1,4(sp)
800011e4:	00012903          	lw	s2,0(sp)
800011e8:	00000513          	li	a0,0
800011ec:	01010113          	addi	sp,sp,16
800011f0:	00008067          	ret

800011f4 <main>:
800011f4:	f6010113          	addi	sp,sp,-160
800011f8:	08112e23          	sw	ra,156(sp)
800011fc:	08812c23          	sw	s0,152(sp)
80001200:	08912a23          	sw	s1,148(sp)
80001204:	00058413          	mv	s0,a1
80001208:	09212823          	sw	s2,144(sp)
8000120c:	09312623          	sw	s3,140(sp)
80001210:	09412423          	sw	s4,136(sp)
80001214:	09512223          	sw	s5,132(sp)
80001218:	09612023          	sw	s6,128(sp)
8000121c:	07712e23          	sw	s7,124(sp)
80001220:	07812c23          	sw	s8,120(sp)
80001224:	07912a23          	sw	s9,116(sp)
80001228:	07a12823          	sw	s10,112(sp)
8000122c:	07b12623          	sw	s11,108(sp)
80001230:	00a12623          	sw	a0,12(sp)
80001234:	6f9000ef          	jal	ra,8000212c <ioe_init>
80001238:	3e800593          	li	a1,1000
8000123c:	00002517          	auipc	a0,0x2
80001240:	bc450513          	addi	a0,a0,-1084 # 80002e00 <_etext+0x18>
80001244:	02d010ef          	jal	ra,80002a70 <printf>
80001248:	00040613          	mv	a2,s0
8000124c:	00c10593          	addi	a1,sp,12
80001250:	05e10513          	addi	a0,sp,94
80001254:	764000ef          	jal	ra,800019b8 <portable_init>
80001258:	00100513          	li	a0,1
8000125c:	db5fe0ef          	jal	ra,80000010 <get_seed_32>
80001260:	00050793          	mv	a5,a0
80001264:	00200513          	li	a0,2
80001268:	00f11e23          	sh	a5,28(sp)
8000126c:	da5fe0ef          	jal	ra,80000010 <get_seed_32>
80001270:	00050793          	mv	a5,a0
80001274:	00300513          	li	a0,3
80001278:	00f11f23          	sh	a5,30(sp)
8000127c:	d95fe0ef          	jal	ra,80000010 <get_seed_32>
80001280:	00050793          	mv	a5,a0
80001284:	00400513          	li	a0,4
80001288:	02f11023          	sh	a5,32(sp)
8000128c:	d85fe0ef          	jal	ra,80000010 <get_seed_32>
80001290:	00050793          	mv	a5,a0
80001294:	00500513          	li	a0,5
80001298:	02f12c23          	sw	a5,56(sp)
8000129c:	d75fe0ef          	jal	ra,80000010 <get_seed_32>
800012a0:	00700793          	li	a5,7
800012a4:	00050463          	beqz	a0,800012ac <main+0xb8>
800012a8:	00050793          	mv	a5,a0
800012ac:	01c12703          	lw	a4,28(sp)
800012b0:	02f12e23          	sw	a5,60(sp)
800012b4:	5a071063          	bnez	a4,80001854 <main+0x660>
800012b8:	02011703          	lh	a4,32(sp)
800012bc:	5a070a63          	beqz	a4,80001870 <main+0x67c>
800012c0:	00002e17          	auipc	t3,0x2
800012c4:	2e8e0e13          	addi	t3,t3,744 # 800035a8 <static_memblk>
800012c8:	0027f713          	andi	a4,a5,2
800012cc:	0017f693          	andi	a3,a5,1
800012d0:	00e035b3          	snez	a1,a4
800012d4:	03c12223          	sw	t3,36(sp)
800012d8:	04011e23          	sh	zero,92(sp)
800012dc:	0047f613          	andi	a2,a5,4
800012e0:	00068e93          	mv	t4,a3
800012e4:	00b686b3          	add	a3,a3,a1
800012e8:	00060863          	beqz	a2,800012f8 <main+0x104>
800012ec:	00168693          	addi	a3,a3,1
800012f0:	01069693          	slli	a3,a3,0x10
800012f4:	0106d693          	srli	a3,a3,0x10
800012f8:	7d000513          	li	a0,2000
800012fc:	02d55533          	divu	a0,a0,a3
80001300:	01c10593          	addi	a1,sp,28
80001304:	00000693          	li	a3,0
80001308:	00000813          	li	a6,0
8000130c:	00100313          	li	t1,1
80001310:	00300893          	li	a7,3
80001314:	02a12a23          	sw	a0,52(sp)
80001318:	00d31633          	sll	a2,t1,a3
8000131c:	00f67633          	and	a2,a2,a5
80001320:	00168693          	addi	a3,a3,1
80001324:	50061a63          	bnez	a2,80001838 <main+0x644>
80001328:	00458593          	addi	a1,a1,4
8000132c:	ff1696e3          	bne	a3,a7,80001318 <main+0x124>
80001330:	220e9c63          	bnez	t4,80001568 <main+0x374>
80001334:	24071863          	bnez	a4,80001584 <main+0x390>
80001338:	0047f793          	andi	a5,a5,4
8000133c:	00078a63          	beqz	a5,80001350 <main+0x15c>
80001340:	03012603          	lw	a2,48(sp)
80001344:	01c11583          	lh	a1,28(sp)
80001348:	03412503          	lw	a0,52(sp)
8000134c:	680000ef          	jal	ra,800019cc <core_init_state>
80001350:	03812783          	lw	a5,56(sp)
80001354:	04079a63          	bnez	a5,800013a8 <main+0x1b4>
80001358:	00100793          	li	a5,1
8000135c:	02f12c23          	sw	a5,56(sp)
80001360:	03812703          	lw	a4,56(sp)
80001364:	00271793          	slli	a5,a4,0x2
80001368:	00e787b3          	add	a5,a5,a4
8000136c:	00179793          	slli	a5,a5,0x1
80001370:	02f12c23          	sw	a5,56(sp)
80001374:	5b0000ef          	jal	ra,80001924 <start_time>
80001378:	01c10513          	addi	a0,sp,28
8000137c:	df1ff0ef          	jal	ra,8000116c <iterate>
80001380:	5e0000ef          	jal	ra,80001960 <stop_time>
80001384:	618000ef          	jal	ra,8000199c <get_time>
80001388:	62c000ef          	jal	ra,800019b4 <time_in_secs>
8000138c:	fc050ae3          	beqz	a0,80001360 <main+0x16c>
80001390:	00a00793          	li	a5,10
80001394:	02a7d7b3          	divu	a5,a5,a0
80001398:	03812703          	lw	a4,56(sp)
8000139c:	00178793          	addi	a5,a5,1
800013a0:	02f707b3          	mul	a5,a4,a5
800013a4:	02f12c23          	sw	a5,56(sp)
800013a8:	57c000ef          	jal	ra,80001924 <start_time>
800013ac:	01c10513          	addi	a0,sp,28
800013b0:	dbdff0ef          	jal	ra,8000116c <iterate>
800013b4:	5ac000ef          	jal	ra,80001960 <stop_time>
800013b8:	5e4000ef          	jal	ra,8000199c <get_time>
800013bc:	00050493          	mv	s1,a0
800013c0:	01c11503          	lh	a0,28(sp)
800013c4:	00000593          	li	a1,0
800013c8:	e41fe0ef          	jal	ra,80000208 <crc16>
800013cc:	00050593          	mv	a1,a0
800013d0:	01e11503          	lh	a0,30(sp)
800013d4:	e35fe0ef          	jal	ra,80000208 <crc16>
800013d8:	00050593          	mv	a1,a0
800013dc:	02011503          	lh	a0,32(sp)
800013e0:	e29fe0ef          	jal	ra,80000208 <crc16>
800013e4:	00050593          	mv	a1,a0
800013e8:	03411503          	lh	a0,52(sp)
800013ec:	e1dfe0ef          	jal	ra,80000208 <crc16>
800013f0:	000087b7          	lui	a5,0x8
800013f4:	b0578793          	addi	a5,a5,-1275 # 7b05 <_entry_offset+0x7b05>
800013f8:	00050913          	mv	s2,a0
800013fc:	50f50063          	beq	a0,a5,800018fc <main+0x708>
80001400:	40a7e663          	bltu	a5,a0,8000180c <main+0x618>
80001404:	000027b7          	lui	a5,0x2
80001408:	8f278793          	addi	a5,a5,-1806 # 18f2 <_entry_offset+0x18f2>
8000140c:	4cf50463          	beq	a0,a5,800018d4 <main+0x6e0>
80001410:	000057b7          	lui	a5,0x5
80001414:	eaf78793          	addi	a5,a5,-337 # 4eaf <_entry_offset+0x4eaf>
80001418:	4ef51c63          	bne	a0,a5,80001910 <main+0x71c>
8000141c:	00002517          	auipc	a0,0x2
80001420:	a6450513          	addi	a0,a0,-1436 # 80002e80 <_etext+0x98>
80001424:	64c010ef          	jal	ra,80002a70 <printf>
80001428:	00200793          	li	a5,2
8000142c:	00002c17          	auipc	s8,0x2
80001430:	f70c0c13          	addi	s8,s8,-144 # 8000339c <default_num_contexts>
80001434:	000c2703          	lw	a4,0(s8)
80001438:	00000d13          	li	s10,0
8000143c:	00000c93          	li	s9,0
80001440:	18070a63          	beqz	a4,800015d4 <main+0x3e0>
80001444:	00179793          	slli	a5,a5,0x1
80001448:	00002a97          	auipc	s5,0x2
8000144c:	d6ca8a93          	addi	s5,s5,-660 # 800031b4 <list_known_crc>
80001450:	00002a17          	auipc	s4,0x2
80001454:	d70a0a13          	addi	s4,s4,-656 # 800031c0 <matrix_known_crc>
80001458:	00002997          	auipc	s3,0x2
8000145c:	d7498993          	addi	s3,s3,-652 # 800031cc <state_known_crc>
80001460:	00fa8ab3          	add	s5,s5,a5
80001464:	00002b17          	auipc	s6,0x2
80001468:	aacb0b13          	addi	s6,s6,-1364 # 80002f10 <_etext+0x128>
8000146c:	00fa0a33          	add	s4,s4,a5
80001470:	00f989b3          	add	s3,s3,a5
80001474:	0380006f          	j	800014ac <main+0x2b8>
80001478:	06040793          	addi	a5,s0,96
8000147c:	00278433          	add	s0,a5,sp
80001480:	ffc45783          	lhu	a5,-4(s0)
80001484:	001c8c93          	addi	s9,s9,1
80001488:	000c2703          	lw	a4,0(s8)
8000148c:	01a787b3          	add	a5,a5,s10
80001490:	010c9c93          	slli	s9,s9,0x10
80001494:	01079413          	slli	s0,a5,0x10
80001498:	01079d13          	slli	s10,a5,0x10
8000149c:	010cdc93          	srli	s9,s9,0x10
800014a0:	01045413          	srli	s0,s0,0x10
800014a4:	410d5d13          	srai	s10,s10,0x10
800014a8:	12ecf863          	bgeu	s9,a4,800015d8 <main+0x3e4>
800014ac:	004c9d93          	slli	s11,s9,0x4
800014b0:	019d8433          	add	s0,s11,s9
800014b4:	00241413          	slli	s0,s0,0x2
800014b8:	06040793          	addi	a5,s0,96
800014bc:	00278433          	add	s0,a5,sp
800014c0:	fdc42783          	lw	a5,-36(s0)
800014c4:	fe041e23          	sh	zero,-4(s0)
800014c8:	0017f793          	andi	a5,a5,1
800014cc:	02078463          	beqz	a5,800014f4 <main+0x300>
800014d0:	ff645603          	lhu	a2,-10(s0)
800014d4:	000ad683          	lhu	a3,0(s5)
800014d8:	00d60e63          	beq	a2,a3,800014f4 <main+0x300>
800014dc:	000c8593          	mv	a1,s9
800014e0:	000b0513          	mv	a0,s6
800014e4:	58c010ef          	jal	ra,80002a70 <printf>
800014e8:	ffc45783          	lhu	a5,-4(s0)
800014ec:	00178793          	addi	a5,a5,1
800014f0:	fef41e23          	sh	a5,-4(s0)
800014f4:	019d8bb3          	add	s7,s11,s9
800014f8:	002b9b93          	slli	s7,s7,0x2
800014fc:	060b8793          	addi	a5,s7,96
80001500:	00278bb3          	add	s7,a5,sp
80001504:	fdcba783          	lw	a5,-36(s7)
80001508:	0027f713          	andi	a4,a5,2
8000150c:	02070863          	beqz	a4,8000153c <main+0x348>
80001510:	ff8bd603          	lhu	a2,-8(s7)
80001514:	000a5683          	lhu	a3,0(s4)
80001518:	02d60263          	beq	a2,a3,8000153c <main+0x348>
8000151c:	000c8593          	mv	a1,s9
80001520:	00002517          	auipc	a0,0x2
80001524:	a2050513          	addi	a0,a0,-1504 # 80002f40 <_etext+0x158>
80001528:	548010ef          	jal	ra,80002a70 <printf>
8000152c:	ffcbd703          	lhu	a4,-4(s7)
80001530:	fdcba783          	lw	a5,-36(s7)
80001534:	00170713          	addi	a4,a4,1
80001538:	feeb9e23          	sh	a4,-4(s7)
8000153c:	019d8433          	add	s0,s11,s9
80001540:	0047f793          	andi	a5,a5,4
80001544:	00241413          	slli	s0,s0,0x2
80001548:	f20788e3          	beqz	a5,80001478 <main+0x284>
8000154c:	06040793          	addi	a5,s0,96
80001550:	00278433          	add	s0,a5,sp
80001554:	ffa45603          	lhu	a2,-6(s0)
80001558:	0009d683          	lhu	a3,0(s3)
8000155c:	04d61863          	bne	a2,a3,800015ac <main+0x3b8>
80001560:	ffc45783          	lhu	a5,-4(s0)
80001564:	f21ff06f          	j	80001484 <main+0x290>
80001568:	01c11603          	lh	a2,28(sp)
8000156c:	02812583          	lw	a1,40(sp)
80001570:	a6dff0ef          	jal	ra,80000fdc <core_list_init>
80001574:	03c12783          	lw	a5,60(sp)
80001578:	04a12023          	sw	a0,64(sp)
8000157c:	0027f713          	andi	a4,a5,2
80001580:	da070ce3          	beqz	a4,80001338 <main+0x144>
80001584:	01e11783          	lh	a5,30(sp)
80001588:	01c11603          	lh	a2,28(sp)
8000158c:	02c12583          	lw	a1,44(sp)
80001590:	03412503          	lw	a0,52(sp)
80001594:	01079793          	slli	a5,a5,0x10
80001598:	00c7e633          	or	a2,a5,a2
8000159c:	04410693          	addi	a3,sp,68
800015a0:	cfdfe0ef          	jal	ra,8000029c <core_init_matrix>
800015a4:	03c12783          	lw	a5,60(sp)
800015a8:	d91ff06f          	j	80001338 <main+0x144>
800015ac:	000c8593          	mv	a1,s9
800015b0:	00002517          	auipc	a0,0x2
800015b4:	9c450513          	addi	a0,a0,-1596 # 80002f74 <_etext+0x18c>
800015b8:	4b8010ef          	jal	ra,80002a70 <printf>
800015bc:	ffc45783          	lhu	a5,-4(s0)
800015c0:	00178793          	addi	a5,a5,1
800015c4:	01079793          	slli	a5,a5,0x10
800015c8:	0107d793          	srli	a5,a5,0x10
800015cc:	fef41e23          	sh	a5,-4(s0)
800015d0:	eb5ff06f          	j	80001484 <main+0x290>
800015d4:	00000413          	li	s0,0
800015d8:	cbdfe0ef          	jal	ra,80000294 <check_data_types>
800015dc:	03412583          	lw	a1,52(sp)
800015e0:	00a409b3          	add	s3,s0,a0
800015e4:	00002517          	auipc	a0,0x2
800015e8:	9c050513          	addi	a0,a0,-1600 # 80002fa4 <_etext+0x1bc>
800015ec:	484010ef          	jal	ra,80002a70 <printf>
800015f0:	00048513          	mv	a0,s1
800015f4:	3c0000ef          	jal	ra,800019b4 <time_in_secs>
800015f8:	00050593          	mv	a1,a0
800015fc:	00002517          	auipc	a0,0x2
80001600:	9c050513          	addi	a0,a0,-1600 # 80002fbc <_etext+0x1d4>
80001604:	46c010ef          	jal	ra,80002a70 <printf>
80001608:	000c2783          	lw	a5,0(s8)
8000160c:	03812583          	lw	a1,56(sp)
80001610:	00002517          	auipc	a0,0x2
80001614:	9c450513          	addi	a0,a0,-1596 # 80002fd4 <_etext+0x1ec>
80001618:	01099993          	slli	s3,s3,0x10
8000161c:	02f585b3          	mul	a1,a1,a5
80001620:	4109d993          	srai	s3,s3,0x10
80001624:	44c010ef          	jal	ra,80002a70 <printf>
80001628:	00002597          	auipc	a1,0x2
8000162c:	9c458593          	addi	a1,a1,-1596 # 80002fec <_etext+0x204>
80001630:	00002517          	auipc	a0,0x2
80001634:	9c850513          	addi	a0,a0,-1592 # 80002ff8 <_etext+0x210>
80001638:	438010ef          	jal	ra,80002a70 <printf>
8000163c:	00090593          	mv	a1,s2
80001640:	00002517          	auipc	a0,0x2
80001644:	9d050513          	addi	a0,a0,-1584 # 80003010 <_etext+0x228>
80001648:	428010ef          	jal	ra,80002a70 <printf>
8000164c:	03c12783          	lw	a5,60(sp)
80001650:	0017f713          	andi	a4,a5,1
80001654:	04070a63          	beqz	a4,800016a8 <main+0x4b4>
80001658:	000c2703          	lw	a4,0(s8)
8000165c:	04070663          	beqz	a4,800016a8 <main+0x4b4>
80001660:	00000413          	li	s0,0
80001664:	00002917          	auipc	s2,0x2
80001668:	9c890913          	addi	s2,s2,-1592 # 8000302c <_etext+0x244>
8000166c:	00441793          	slli	a5,s0,0x4
80001670:	008787b3          	add	a5,a5,s0
80001674:	00279793          	slli	a5,a5,0x2
80001678:	06078793          	addi	a5,a5,96
8000167c:	002787b3          	add	a5,a5,sp
80001680:	ff67d603          	lhu	a2,-10(a5)
80001684:	00040593          	mv	a1,s0
80001688:	00090513          	mv	a0,s2
8000168c:	3e4010ef          	jal	ra,80002a70 <printf>
80001690:	00140413          	addi	s0,s0,1
80001694:	000c2783          	lw	a5,0(s8)
80001698:	01041413          	slli	s0,s0,0x10
8000169c:	01045413          	srli	s0,s0,0x10
800016a0:	fcf466e3          	bltu	s0,a5,8000166c <main+0x478>
800016a4:	03c12783          	lw	a5,60(sp)
800016a8:	0027f713          	andi	a4,a5,2
800016ac:	04070a63          	beqz	a4,80001700 <main+0x50c>
800016b0:	000c2703          	lw	a4,0(s8)
800016b4:	20070a63          	beqz	a4,800018c8 <main+0x6d4>
800016b8:	00000413          	li	s0,0
800016bc:	00002917          	auipc	s2,0x2
800016c0:	98c90913          	addi	s2,s2,-1652 # 80003048 <_etext+0x260>
800016c4:	00441793          	slli	a5,s0,0x4
800016c8:	008787b3          	add	a5,a5,s0
800016cc:	00279793          	slli	a5,a5,0x2
800016d0:	06078793          	addi	a5,a5,96
800016d4:	002787b3          	add	a5,a5,sp
800016d8:	ff87d603          	lhu	a2,-8(a5)
800016dc:	00040593          	mv	a1,s0
800016e0:	00090513          	mv	a0,s2
800016e4:	38c010ef          	jal	ra,80002a70 <printf>
800016e8:	00140413          	addi	s0,s0,1
800016ec:	000c2783          	lw	a5,0(s8)
800016f0:	01041413          	slli	s0,s0,0x10
800016f4:	01045413          	srli	s0,s0,0x10
800016f8:	fcf466e3          	bltu	s0,a5,800016c4 <main+0x4d0>
800016fc:	03c12783          	lw	a5,60(sp)
80001700:	0047f793          	andi	a5,a5,4
80001704:	000c2703          	lw	a4,0(s8)
80001708:	04078663          	beqz	a5,80001754 <main+0x560>
8000170c:	00000413          	li	s0,0
80001710:	00002917          	auipc	s2,0x2
80001714:	96890913          	addi	s2,s2,-1688 # 80003078 <_etext+0x290>
80001718:	08070463          	beqz	a4,800017a0 <main+0x5ac>
8000171c:	00441793          	slli	a5,s0,0x4
80001720:	008787b3          	add	a5,a5,s0
80001724:	00279793          	slli	a5,a5,0x2
80001728:	06078793          	addi	a5,a5,96
8000172c:	002787b3          	add	a5,a5,sp
80001730:	ffa7d603          	lhu	a2,-6(a5)
80001734:	00040593          	mv	a1,s0
80001738:	00090513          	mv	a0,s2
8000173c:	334010ef          	jal	ra,80002a70 <printf>
80001740:	00140413          	addi	s0,s0,1
80001744:	000c2783          	lw	a5,0(s8)
80001748:	01041413          	slli	s0,s0,0x10
8000174c:	01045413          	srli	s0,s0,0x10
80001750:	fcf466e3          	bltu	s0,a5,8000171c <main+0x528>
80001754:	000c2783          	lw	a5,0(s8)
80001758:	00000413          	li	s0,0
8000175c:	00002917          	auipc	s2,0x2
80001760:	93890913          	addi	s2,s2,-1736 # 80003094 <_etext+0x2ac>
80001764:	02078e63          	beqz	a5,800017a0 <main+0x5ac>
80001768:	00441793          	slli	a5,s0,0x4
8000176c:	008787b3          	add	a5,a5,s0
80001770:	00279793          	slli	a5,a5,0x2
80001774:	06078793          	addi	a5,a5,96
80001778:	002787b3          	add	a5,a5,sp
8000177c:	ff47d603          	lhu	a2,-12(a5)
80001780:	00040593          	mv	a1,s0
80001784:	00090513          	mv	a0,s2
80001788:	2e8010ef          	jal	ra,80002a70 <printf>
8000178c:	00140413          	addi	s0,s0,1
80001790:	000c2783          	lw	a5,0(s8)
80001794:	01041413          	slli	s0,s0,0x10
80001798:	01045413          	srli	s0,s0,0x10
8000179c:	fcf466e3          	bltu	s0,a5,80001768 <main+0x574>
800017a0:	00048593          	mv	a1,s1
800017a4:	00002517          	auipc	a0,0x2
800017a8:	8c050513          	addi	a0,a0,-1856 # 80003064 <_etext+0x27c>
800017ac:	2c4010ef          	jal	ra,80002a70 <printf>
800017b0:	0c098e63          	beqz	s3,8000188c <main+0x698>
800017b4:	0d305463          	blez	s3,8000187c <main+0x688>
800017b8:	00002517          	auipc	a0,0x2
800017bc:	98450513          	addi	a0,a0,-1660 # 8000313c <_etext+0x354>
800017c0:	2b0010ef          	jal	ra,80002a70 <printf>
800017c4:	05e10513          	addi	a0,sp,94
800017c8:	1fc000ef          	jal	ra,800019c4 <portable_fini>
800017cc:	09c12083          	lw	ra,156(sp)
800017d0:	09812403          	lw	s0,152(sp)
800017d4:	09412483          	lw	s1,148(sp)
800017d8:	09012903          	lw	s2,144(sp)
800017dc:	08c12983          	lw	s3,140(sp)
800017e0:	08812a03          	lw	s4,136(sp)
800017e4:	08412a83          	lw	s5,132(sp)
800017e8:	08012b03          	lw	s6,128(sp)
800017ec:	07c12b83          	lw	s7,124(sp)
800017f0:	07812c03          	lw	s8,120(sp)
800017f4:	07412c83          	lw	s9,116(sp)
800017f8:	07012d03          	lw	s10,112(sp)
800017fc:	06c12d83          	lw	s11,108(sp)
80001800:	00000513          	li	a0,0
80001804:	0a010113          	addi	sp,sp,160
80001808:	00008067          	ret
8000180c:	000097b7          	lui	a5,0x9
80001810:	a0278793          	addi	a5,a5,-1534 # 8a02 <_entry_offset+0x8a02>
80001814:	0cf50a63          	beq	a0,a5,800018e8 <main+0x6f4>
80001818:	0000f7b7          	lui	a5,0xf
8000181c:	9f578793          	addi	a5,a5,-1547 # e9f5 <_entry_offset+0xe9f5>
80001820:	0ef51863          	bne	a0,a5,80001910 <main+0x71c>
80001824:	00001517          	auipc	a0,0x1
80001828:	69050513          	addi	a0,a0,1680 # 80002eb4 <_etext+0xcc>
8000182c:	244010ef          	jal	ra,80002a70 <printf>
80001830:	00300793          	li	a5,3
80001834:	bf9ff06f          	j	8000142c <main+0x238>
80001838:	02a80633          	mul	a2,a6,a0
8000183c:	00180813          	addi	a6,a6,1
80001840:	01081813          	slli	a6,a6,0x10
80001844:	01085813          	srli	a6,a6,0x10
80001848:	00ce0633          	add	a2,t3,a2
8000184c:	00c5a623          	sw	a2,12(a1)
80001850:	ad9ff06f          	j	80001328 <main+0x134>
80001854:	00100693          	li	a3,1
80001858:	a6d714e3          	bne	a4,a3,800012c0 <main+0xcc>
8000185c:	02011703          	lh	a4,32(sp)
80001860:	a60710e3          	bnez	a4,800012c0 <main+0xcc>
80001864:	34153737          	lui	a4,0x34153
80001868:	41570713          	addi	a4,a4,1045 # 34153415 <_entry_offset+0x34153415>
8000186c:	00e12e23          	sw	a4,28(sp)
80001870:	06600713          	li	a4,102
80001874:	02e11023          	sh	a4,32(sp)
80001878:	a49ff06f          	j	800012c0 <main+0xcc>
8000187c:	00002517          	auipc	a0,0x2
80001880:	8d450513          	addi	a0,a0,-1836 # 80003150 <_etext+0x368>
80001884:	1ec010ef          	jal	ra,80002a70 <printf>
80001888:	f3dff06f          	j	800017c4 <main+0x5d0>
8000188c:	00002517          	auipc	a0,0x2
80001890:	82450513          	addi	a0,a0,-2012 # 800030b0 <_etext+0x2c8>
80001894:	1dc010ef          	jal	ra,80002a70 <printf>
80001898:	00048513          	mv	a0,s1
8000189c:	118000ef          	jal	ra,800019b4 <time_in_secs>
800018a0:	002c97b7          	lui	a5,0x2c9
800018a4:	3b878793          	addi	a5,a5,952 # 2c93b8 <_entry_offset+0x2c93b8>
800018a8:	02a7d5b3          	divu	a1,a5,a0
800018ac:	00002517          	auipc	a0,0x2
800018b0:	83850513          	addi	a0,a0,-1992 # 800030e4 <_etext+0x2fc>
800018b4:	1bc010ef          	jal	ra,80002a70 <printf>
800018b8:	00002517          	auipc	a0,0x2
800018bc:	84c50513          	addi	a0,a0,-1972 # 80003104 <_etext+0x31c>
800018c0:	1b0010ef          	jal	ra,80002a70 <printf>
800018c4:	f01ff06f          	j	800017c4 <main+0x5d0>
800018c8:	0047f793          	andi	a5,a5,4
800018cc:	e80784e3          	beqz	a5,80001754 <main+0x560>
800018d0:	ed1ff06f          	j	800017a0 <main+0x5ac>
800018d4:	00001517          	auipc	a0,0x1
800018d8:	61050513          	addi	a0,a0,1552 # 80002ee4 <_etext+0xfc>
800018dc:	194010ef          	jal	ra,80002a70 <printf>
800018e0:	00400793          	li	a5,4
800018e4:	b49ff06f          	j	8000142c <main+0x238>
800018e8:	00001517          	auipc	a0,0x1
800018ec:	53c50513          	addi	a0,a0,1340 # 80002e24 <_etext+0x3c>
800018f0:	180010ef          	jal	ra,80002a70 <printf>
800018f4:	00000793          	li	a5,0
800018f8:	b35ff06f          	j	8000142c <main+0x238>
800018fc:	00001517          	auipc	a0,0x1
80001900:	55850513          	addi	a0,a0,1368 # 80002e54 <_etext+0x6c>
80001904:	16c010ef          	jal	ra,80002a70 <printf>
80001908:	00100793          	li	a5,1
8000190c:	b21ff06f          	j	8000142c <main+0x238>
80001910:	00010437          	lui	s0,0x10
80001914:	fff40413          	addi	s0,s0,-1 # ffff <_entry_offset+0xffff>
80001918:	00002c17          	auipc	s8,0x2
8000191c:	a84c0c13          	addi	s8,s8,-1404 # 8000339c <default_num_contexts>
80001920:	cb9ff06f          	j	800015d8 <main+0x3e4>

80001924 <start_time>:
80001924:	fe010113          	addi	sp,sp,-32
80001928:	00810593          	addi	a1,sp,8
8000192c:	00600513          	li	a0,6
80001930:	00112e23          	sw	ra,28(sp)
80001934:	055000ef          	jal	ra,80002188 <ioe_read>
80001938:	00812503          	lw	a0,8(sp)
8000193c:	00c12583          	lw	a1,12(sp)
80001940:	3e800613          	li	a2,1000
80001944:	00000693          	li	a3,0
80001948:	46d000ef          	jal	ra,800025b4 <__udivdi3>
8000194c:	01c12083          	lw	ra,28(sp)
80001950:	00002797          	auipc	a5,0x2
80001954:	42a7aa23          	sw	a0,1076(a5) # 80003d84 <start_time_val>
80001958:	02010113          	addi	sp,sp,32
8000195c:	00008067          	ret

80001960 <stop_time>:
80001960:	fe010113          	addi	sp,sp,-32
80001964:	00810593          	addi	a1,sp,8
80001968:	00600513          	li	a0,6
8000196c:	00112e23          	sw	ra,28(sp)
80001970:	019000ef          	jal	ra,80002188 <ioe_read>
80001974:	00812503          	lw	a0,8(sp)
80001978:	00c12583          	lw	a1,12(sp)
8000197c:	3e800613          	li	a2,1000
80001980:	00000693          	li	a3,0
80001984:	431000ef          	jal	ra,800025b4 <__udivdi3>
80001988:	01c12083          	lw	ra,28(sp)
8000198c:	00002797          	auipc	a5,0x2
80001990:	3ea7ae23          	sw	a0,1020(a5) # 80003d88 <stop_time_val>
80001994:	02010113          	addi	sp,sp,32
80001998:	00008067          	ret

8000199c <get_time>:
8000199c:	00002517          	auipc	a0,0x2
800019a0:	3ec52503          	lw	a0,1004(a0) # 80003d88 <stop_time_val>
800019a4:	00002797          	auipc	a5,0x2
800019a8:	3e07a783          	lw	a5,992(a5) # 80003d84 <start_time_val>
800019ac:	40f50533          	sub	a0,a0,a5
800019b0:	00008067          	ret

800019b4 <time_in_secs>:
800019b4:	00008067          	ret

800019b8 <portable_init>:
800019b8:	00100793          	li	a5,1
800019bc:	00f50023          	sb	a5,0(a0)
800019c0:	00008067          	ret

800019c4 <portable_fini>:
800019c4:	00050023          	sb	zero,0(a0)
800019c8:	00008067          	ret

800019cc <core_init_state>:
800019cc:	fff50813          	addi	a6,a0,-1
800019d0:	00100793          	li	a5,1
800019d4:	1507fc63          	bgeu	a5,a6,80001b2c <core_init_state+0x160>
800019d8:	00158593          	addi	a1,a1,1
800019dc:	01059593          	slli	a1,a1,0x10
800019e0:	ff010113          	addi	sp,sp,-16
800019e4:	0105d593          	srli	a1,a1,0x10
800019e8:	0035d793          	srli	a5,a1,0x3
800019ec:	00812623          	sw	s0,12(sp)
800019f0:	00912423          	sw	s1,8(sp)
800019f4:	01212223          	sw	s2,4(sp)
800019f8:	01312023          	sw	s3,0(sp)
800019fc:	00700e13          	li	t3,7
80001a00:	0075f693          	andi	a3,a1,7
80001a04:	00000713          	li	a4,0
80001a08:	00002397          	auipc	t2,0x2
80001a0c:	88038393          	addi	t2,t2,-1920 # 80003288 <errpat>
80001a10:	00400313          	li	t1,4
80001a14:	00002297          	auipc	t0,0x2
80001a18:	8a428293          	addi	t0,t0,-1884 # 800032b8 <scipat>
80001a1c:	00100893          	li	a7,1
80001a20:	00002f97          	auipc	t6,0x2
80001a24:	878f8f93          	addi	t6,t6,-1928 # 80003298 <floatpat>
80001a28:	00002f17          	auipc	t5,0x2
80001a2c:	880f0f13          	addi	t5,t5,-1920 # 800032a8 <intpat>
80001a30:	02c00e93          	li	t4,44
80001a34:	0037f793          	andi	a5,a5,3
80001a38:	07c68e63          	beq	a3,t3,80001ab4 <core_init_state+0xe8>
80001a3c:	0cd36c63          	bltu	t1,a3,80001b14 <core_init_state+0x148>
80001a40:	ffd68693          	addi	a3,a3,-3
80001a44:	01069693          	slli	a3,a3,0x10
80001a48:	0106d693          	srli	a3,a3,0x10
80001a4c:	00279793          	slli	a5,a5,0x2
80001a50:	0ad8e863          	bltu	a7,a3,80001b00 <core_init_state+0x134>
80001a54:	00ff87b3          	add	a5,t6,a5
80001a58:	0007a783          	lw	a5,0(a5)
80001a5c:	00900413          	li	s0,9
80001a60:	00800993          	li	s3,8
80001a64:	00870433          	add	s0,a4,s0
80001a68:	07047463          	bgeu	s0,a6,80001ad0 <core_init_state+0x104>
80001a6c:	00e60733          	add	a4,a2,a4
80001a70:	00070693          	mv	a3,a4
80001a74:	01378933          	add	s2,a5,s3
80001a78:	0007c483          	lbu	s1,0(a5)
80001a7c:	00178793          	addi	a5,a5,1
80001a80:	00168693          	addi	a3,a3,1
80001a84:	fe968fa3          	sb	s1,-1(a3)
80001a88:	fef918e3          	bne	s2,a5,80001a78 <core_init_state+0xac>
80001a8c:	00158593          	addi	a1,a1,1
80001a90:	01059593          	slli	a1,a1,0x10
80001a94:	01370733          	add	a4,a4,s3
80001a98:	0105d593          	srli	a1,a1,0x10
80001a9c:	01d70023          	sb	t4,0(a4)
80001aa0:	0035d793          	srli	a5,a1,0x3
80001aa4:	0075f693          	andi	a3,a1,7
80001aa8:	00040713          	mv	a4,s0
80001aac:	0037f793          	andi	a5,a5,3
80001ab0:	f9c696e3          	bne	a3,t3,80001a3c <core_init_state+0x70>
80001ab4:	00279793          	slli	a5,a5,0x2
80001ab8:	00900413          	li	s0,9
80001abc:	00f387b3          	add	a5,t2,a5
80001ac0:	00870433          	add	s0,a4,s0
80001ac4:	0007a783          	lw	a5,0(a5)
80001ac8:	00800993          	li	s3,8
80001acc:	fb0460e3          	bltu	s0,a6,80001a6c <core_init_state+0xa0>
80001ad0:	00a77c63          	bgeu	a4,a0,80001ae8 <core_init_state+0x11c>
80001ad4:	00e60733          	add	a4,a2,a4
80001ad8:	00a60633          	add	a2,a2,a0
80001adc:	00070023          	sb	zero,0(a4)
80001ae0:	00170713          	addi	a4,a4,1
80001ae4:	fee61ce3          	bne	a2,a4,80001adc <core_init_state+0x110>
80001ae8:	00c12403          	lw	s0,12(sp)
80001aec:	00812483          	lw	s1,8(sp)
80001af0:	00412903          	lw	s2,4(sp)
80001af4:	00012983          	lw	s3,0(sp)
80001af8:	01010113          	addi	sp,sp,16
80001afc:	00008067          	ret
80001b00:	00ff07b3          	add	a5,t5,a5
80001b04:	0007a783          	lw	a5,0(a5)
80001b08:	00500413          	li	s0,5
80001b0c:	00400993          	li	s3,4
80001b10:	f55ff06f          	j	80001a64 <core_init_state+0x98>
80001b14:	00279793          	slli	a5,a5,0x2
80001b18:	00f287b3          	add	a5,t0,a5
80001b1c:	0007a783          	lw	a5,0(a5)
80001b20:	00900413          	li	s0,9
80001b24:	00800993          	li	s3,8
80001b28:	f3dff06f          	j	80001a64 <core_init_state+0x98>
80001b2c:	00000713          	li	a4,0
80001b30:	00e60733          	add	a4,a2,a4
80001b34:	00a60633          	add	a2,a2,a0
80001b38:	00070023          	sb	zero,0(a4)
80001b3c:	00170713          	addi	a4,a4,1
80001b40:	fee61ce3          	bne	a2,a4,80001b38 <core_init_state+0x16c>
80001b44:	00008067          	ret

80001b48 <core_state_transition>:
80001b48:	00052703          	lw	a4,0(a0)
80001b4c:	00050313          	mv	t1,a0
80001b50:	00000513          	li	a0,0
80001b54:	00074803          	lbu	a6,0(a4)
80001b58:	00070693          	mv	a3,a4
80001b5c:	12080063          	beqz	a6,80001c7c <core_state_transition+0x134>
80001b60:	00170e13          	addi	t3,a4,1
80001b64:	02c00513          	li	a0,44
80001b68:	000e0693          	mv	a3,t3
80001b6c:	2aa80463          	beq	a6,a0,80001e14 <core_state_transition+0x2cc>
80001b70:	0005a603          	lw	a2,0(a1)
80001b74:	fd080793          	addi	a5,a6,-48
80001b78:	0ff7f793          	zext.b	a5,a5
80001b7c:	00900893          	li	a7,9
80001b80:	00160613          	addi	a2,a2,1
80001b84:	10f8e063          	bltu	a7,a5,80001c84 <core_state_transition+0x13c>
80001b88:	00c5a023          	sw	a2,0(a1)
80001b8c:	00174783          	lbu	a5,1(a4)
80001b90:	28078a63          	beqz	a5,80001e24 <core_state_transition+0x2dc>
80001b94:	28a78c63          	beq	a5,a0,80001e2c <core_state_transition+0x2e4>
80001b98:	fd078713          	addi	a4,a5,-48
80001b9c:	02e00513          	li	a0,46
80001ba0:	0ff77613          	zext.b	a2,a4
80001ba4:	00900813          	li	a6,9
80001ba8:	02c00893          	li	a7,44
80001bac:	00168713          	addi	a4,a3,1
80001bb0:	02a78463          	beq	a5,a0,80001bd8 <core_state_transition+0x90>
80001bb4:	10c86263          	bltu	a6,a2,80001cb8 <core_state_transition+0x170>
80001bb8:	00074783          	lbu	a5,0(a4)
80001bbc:	26078263          	beqz	a5,80001e20 <core_state_transition+0x2d8>
80001bc0:	2f178863          	beq	a5,a7,80001eb0 <core_state_transition+0x368>
80001bc4:	00070693          	mv	a3,a4
80001bc8:	fd078713          	addi	a4,a5,-48
80001bcc:	0ff77613          	zext.b	a2,a4
80001bd0:	00168713          	addi	a4,a3,1
80001bd4:	fea790e3          	bne	a5,a0,80001bb4 <core_state_transition+0x6c>
80001bd8:	0105a783          	lw	a5,16(a1)
80001bdc:	00178793          	addi	a5,a5,1
80001be0:	00f5a823          	sw	a5,16(a1)
80001be4:	0016c783          	lbu	a5,1(a3)
80001be8:	2a078663          	beqz	a5,80001e94 <core_state_transition+0x34c>
80001bec:	02c00613          	li	a2,44
80001bf0:	2ac78863          	beq	a5,a2,80001ea0 <core_state_transition+0x358>
80001bf4:	fd078693          	addi	a3,a5,-48
80001bf8:	04500513          	li	a0,69
80001bfc:	0df7f793          	andi	a5,a5,223
80001c00:	0ff6f613          	zext.b	a2,a3
80001c04:	00900813          	li	a6,9
80001c08:	02c00893          	li	a7,44
80001c0c:	00170693          	addi	a3,a4,1
80001c10:	02a78663          	beq	a5,a0,80001c3c <core_state_transition+0xf4>
80001c14:	14c86c63          	bltu	a6,a2,80001d6c <core_state_transition+0x224>
80001c18:	0006c783          	lbu	a5,0(a3)
80001c1c:	22078863          	beqz	a5,80001e4c <core_state_transition+0x304>
80001c20:	27178263          	beq	a5,a7,80001e84 <core_state_transition+0x33c>
80001c24:	00068713          	mv	a4,a3
80001c28:	fd078693          	addi	a3,a5,-48
80001c2c:	0df7f793          	andi	a5,a5,223
80001c30:	0ff6f613          	zext.b	a2,a3
80001c34:	00170693          	addi	a3,a4,1
80001c38:	fca79ee3          	bne	a5,a0,80001c14 <core_state_transition+0xcc>
80001c3c:	0145a783          	lw	a5,20(a1)
80001c40:	00300513          	li	a0,3
80001c44:	00178793          	addi	a5,a5,1
80001c48:	00f5aa23          	sw	a5,20(a1)
80001c4c:	00174783          	lbu	a5,1(a4)
80001c50:	02078663          	beqz	a5,80001c7c <core_state_transition+0x134>
80001c54:	02c00513          	li	a0,44
80001c58:	1ea78e63          	beq	a5,a0,80001e54 <core_state_transition+0x30c>
80001c5c:	00c5a603          	lw	a2,12(a1)
80001c60:	fd578793          	addi	a5,a5,-43
80001c64:	0fd7f793          	andi	a5,a5,253
80001c68:	00160613          	addi	a2,a2,1
80001c6c:	00270693          	addi	a3,a4,2
80001c70:	06078263          	beqz	a5,80001cd4 <core_state_transition+0x18c>
80001c74:	00c5a623          	sw	a2,12(a1)
80001c78:	00100513          	li	a0,1
80001c7c:	00d32023          	sw	a3,0(t1)
80001c80:	00008067          	ret
80001c84:	02d00793          	li	a5,45
80001c88:	10f80863          	beq	a6,a5,80001d98 <core_state_transition+0x250>
80001c8c:	02e00793          	li	a5,46
80001c90:	0ef80863          	beq	a6,a5,80001d80 <core_state_transition+0x238>
80001c94:	02b00793          	li	a5,43
80001c98:	10f80063          	beq	a6,a5,80001d98 <core_state_transition+0x250>
80001c9c:	0045a783          	lw	a5,4(a1)
80001ca0:	00c5a023          	sw	a2,0(a1)
80001ca4:	00100513          	li	a0,1
80001ca8:	00178793          	addi	a5,a5,1
80001cac:	00f5a223          	sw	a5,4(a1)
80001cb0:	00d32023          	sw	a3,0(t1)
80001cb4:	00008067          	ret
80001cb8:	0105a783          	lw	a5,16(a1)
80001cbc:	00070693          	mv	a3,a4
80001cc0:	00100513          	li	a0,1
80001cc4:	00178793          	addi	a5,a5,1
80001cc8:	00f5a823          	sw	a5,16(a1)
80001ccc:	00d32023          	sw	a3,0(t1)
80001cd0:	00008067          	ret
80001cd4:	00c5a623          	sw	a2,12(a1)
80001cd8:	00274783          	lbu	a5,2(a4)
80001cdc:	16078463          	beqz	a5,80001e44 <core_state_transition+0x2fc>
80001ce0:	18a78263          	beq	a5,a0,80001e64 <core_state_transition+0x31c>
80001ce4:	0185a683          	lw	a3,24(a1)
80001ce8:	fd078793          	addi	a5,a5,-48
80001cec:	0ff7f793          	zext.b	a5,a5
80001cf0:	00900813          	li	a6,9
80001cf4:	00168613          	addi	a2,a3,1
80001cf8:	00370693          	addi	a3,a4,3
80001cfc:	04f86663          	bltu	a6,a5,80001d48 <core_state_transition+0x200>
80001d00:	00c5ac23          	sw	a2,24(a1)
80001d04:	00374783          	lbu	a5,3(a4)
80001d08:	12078a63          	beqz	a5,80001e3c <core_state_transition+0x2f4>
80001d0c:	16a78463          	beq	a5,a0,80001e74 <core_state_transition+0x32c>
80001d10:	00900713          	li	a4,9
80001d14:	02c00613          	li	a2,44
80001d18:	fd078793          	addi	a5,a5,-48
80001d1c:	0ff7f793          	zext.b	a5,a5
80001d20:	00168693          	addi	a3,a3,1
80001d24:	02f76a63          	bltu	a4,a5,80001d58 <core_state_transition+0x210>
80001d28:	0006c783          	lbu	a5,0(a3)
80001d2c:	10078863          	beqz	a5,80001e3c <core_state_transition+0x2f4>
80001d30:	fec794e3          	bne	a5,a2,80001d18 <core_state_transition+0x1d0>
80001d34:	00168e13          	addi	t3,a3,1
80001d38:	00700513          	li	a0,7
80001d3c:	000e0693          	mv	a3,t3
80001d40:	00d32023          	sw	a3,0(t1)
80001d44:	00008067          	ret
80001d48:	00c5ac23          	sw	a2,24(a1)
80001d4c:	00100513          	li	a0,1
80001d50:	00d32023          	sw	a3,0(t1)
80001d54:	00008067          	ret
80001d58:	0045a783          	lw	a5,4(a1)
80001d5c:	00100513          	li	a0,1
80001d60:	00178793          	addi	a5,a5,1
80001d64:	00f5a223          	sw	a5,4(a1)
80001d68:	f15ff06f          	j	80001c7c <core_state_transition+0x134>
80001d6c:	0145a783          	lw	a5,20(a1)
80001d70:	00100513          	li	a0,1
80001d74:	00178793          	addi	a5,a5,1
80001d78:	00f5aa23          	sw	a5,20(a1)
80001d7c:	f01ff06f          	j	80001c7c <core_state_transition+0x134>
80001d80:	00c5a023          	sw	a2,0(a1)
80001d84:	00174783          	lbu	a5,1(a4)
80001d88:	0c078263          	beqz	a5,80001e4c <core_state_transition+0x304>
80001d8c:	0ea78c63          	beq	a5,a0,80001e84 <core_state_transition+0x33c>
80001d90:	000e0713          	mv	a4,t3
80001d94:	e61ff06f          	j	80001bf4 <core_state_transition+0xac>
80001d98:	00c5a023          	sw	a2,0(a1)
80001d9c:	00174803          	lbu	a6,1(a4)
80001da0:	14080063          	beqz	a6,80001ee0 <core_state_transition+0x398>
80001da4:	02c00893          	li	a7,44
80001da8:	13180463          	beq	a6,a7,80001ed0 <core_state_transition+0x388>
80001dac:	0085a683          	lw	a3,8(a1)
80001db0:	fd080793          	addi	a5,a6,-48
80001db4:	0ff7f793          	zext.b	a5,a5
80001db8:	00900513          	li	a0,9
80001dbc:	00168613          	addi	a2,a3,1
80001dc0:	00270693          	addi	a3,a4,2
80001dc4:	00f57c63          	bgeu	a0,a5,80001ddc <core_state_transition+0x294>
80001dc8:	02e00793          	li	a5,46
80001dcc:	02f80863          	beq	a6,a5,80001dfc <core_state_transition+0x2b4>
80001dd0:	00c5a423          	sw	a2,8(a1)
80001dd4:	00100513          	li	a0,1
80001dd8:	ea5ff06f          	j	80001c7c <core_state_transition+0x134>
80001ddc:	00c5a423          	sw	a2,8(a1)
80001de0:	00274783          	lbu	a5,2(a4)
80001de4:	04078063          	beqz	a5,80001e24 <core_state_transition+0x2dc>
80001de8:	db1798e3          	bne	a5,a7,80001b98 <core_state_transition+0x50>
80001dec:	00370e13          	addi	t3,a4,3
80001df0:	00400513          	li	a0,4
80001df4:	000e0693          	mv	a3,t3
80001df8:	f49ff06f          	j	80001d40 <core_state_transition+0x1f8>
80001dfc:	00c5a423          	sw	a2,8(a1)
80001e00:	00274783          	lbu	a5,2(a4)
80001e04:	04078463          	beqz	a5,80001e4c <core_state_transition+0x304>
80001e08:	0b178c63          	beq	a5,a7,80001ec0 <core_state_transition+0x378>
80001e0c:	00068713          	mv	a4,a3
80001e10:	de5ff06f          	j	80001bf4 <core_state_transition+0xac>
80001e14:	00000513          	li	a0,0
80001e18:	000e0693          	mv	a3,t3
80001e1c:	f25ff06f          	j	80001d40 <core_state_transition+0x1f8>
80001e20:	00070693          	mv	a3,a4
80001e24:	00400513          	li	a0,4
80001e28:	e55ff06f          	j	80001c7c <core_state_transition+0x134>
80001e2c:	00270e13          	addi	t3,a4,2
80001e30:	00400513          	li	a0,4
80001e34:	000e0693          	mv	a3,t3
80001e38:	f09ff06f          	j	80001d40 <core_state_transition+0x1f8>
80001e3c:	00700513          	li	a0,7
80001e40:	e3dff06f          	j	80001c7c <core_state_transition+0x134>
80001e44:	00600513          	li	a0,6
80001e48:	e35ff06f          	j	80001c7c <core_state_transition+0x134>
80001e4c:	00500513          	li	a0,5
80001e50:	e2dff06f          	j	80001c7c <core_state_transition+0x134>
80001e54:	00270e13          	addi	t3,a4,2
80001e58:	00300513          	li	a0,3
80001e5c:	000e0693          	mv	a3,t3
80001e60:	ee1ff06f          	j	80001d40 <core_state_transition+0x1f8>
80001e64:	00370e13          	addi	t3,a4,3
80001e68:	00600513          	li	a0,6
80001e6c:	000e0693          	mv	a3,t3
80001e70:	ed1ff06f          	j	80001d40 <core_state_transition+0x1f8>
80001e74:	00470e13          	addi	t3,a4,4
80001e78:	00700513          	li	a0,7
80001e7c:	000e0693          	mv	a3,t3
80001e80:	ec1ff06f          	j	80001d40 <core_state_transition+0x1f8>
80001e84:	00270e13          	addi	t3,a4,2
80001e88:	00500513          	li	a0,5
80001e8c:	000e0693          	mv	a3,t3
80001e90:	eb1ff06f          	j	80001d40 <core_state_transition+0x1f8>
80001e94:	00070693          	mv	a3,a4
80001e98:	00500513          	li	a0,5
80001e9c:	de1ff06f          	j	80001c7c <core_state_transition+0x134>
80001ea0:	00268e13          	addi	t3,a3,2
80001ea4:	00500513          	li	a0,5
80001ea8:	000e0693          	mv	a3,t3
80001eac:	e95ff06f          	j	80001d40 <core_state_transition+0x1f8>
80001eb0:	00268e13          	addi	t3,a3,2
80001eb4:	00400513          	li	a0,4
80001eb8:	000e0693          	mv	a3,t3
80001ebc:	e85ff06f          	j	80001d40 <core_state_transition+0x1f8>
80001ec0:	00370e13          	addi	t3,a4,3
80001ec4:	00500513          	li	a0,5
80001ec8:	000e0693          	mv	a3,t3
80001ecc:	e75ff06f          	j	80001d40 <core_state_transition+0x1f8>
80001ed0:	001e0e13          	addi	t3,t3,1
80001ed4:	00200513          	li	a0,2
80001ed8:	000e0693          	mv	a3,t3
80001edc:	e65ff06f          	j	80001d40 <core_state_transition+0x1f8>
80001ee0:	00200513          	li	a0,2
80001ee4:	d99ff06f          	j	80001c7c <core_state_transition+0x134>

80001ee8 <core_bench_state>:
80001ee8:	f8010113          	addi	sp,sp,-128
80001eec:	06912a23          	sw	s1,116(sp)
80001ef0:	07312623          	sw	s3,108(sp)
80001ef4:	01010493          	addi	s1,sp,16
80001ef8:	03010993          	addi	s3,sp,48
80001efc:	07212823          	sw	s2,112(sp)
80001f00:	07412423          	sw	s4,104(sp)
80001f04:	07512223          	sw	s5,100(sp)
80001f08:	07612023          	sw	s6,96(sp)
80001f0c:	05712e23          	sw	s7,92(sp)
80001f10:	05812c23          	sw	s8,88(sp)
80001f14:	00068a93          	mv	s5,a3
80001f18:	00070a13          	mv	s4,a4
80001f1c:	00078913          	mv	s2,a5
80001f20:	06112e23          	sw	ra,124(sp)
80001f24:	06812c23          	sw	s0,120(sp)
80001f28:	05912a23          	sw	s9,84(sp)
80001f2c:	00058b13          	mv	s6,a1
80001f30:	00050c13          	mv	s8,a0
80001f34:	00060b93          	mv	s7,a2
80001f38:	00b12623          	sw	a1,12(sp)
80001f3c:	05010693          	addi	a3,sp,80
80001f40:	00048713          	mv	a4,s1
80001f44:	00098793          	mv	a5,s3
80001f48:	0007a023          	sw	zero,0(a5)
80001f4c:	00072023          	sw	zero,0(a4)
80001f50:	00478793          	addi	a5,a5,4
80001f54:	00470713          	addi	a4,a4,4
80001f58:	fed798e3          	bne	a5,a3,80001f48 <core_bench_state+0x60>
80001f5c:	000b4403          	lbu	s0,0(s6)
80001f60:	00c10c93          	addi	s9,sp,12
80001f64:	02040a63          	beqz	s0,80001f98 <core_bench_state+0xb0>
80001f68:	03010593          	addi	a1,sp,48
80001f6c:	000c8513          	mv	a0,s9
80001f70:	bd9ff0ef          	jal	ra,80001b48 <core_state_transition>
80001f74:	00251813          	slli	a6,a0,0x2
80001f78:	05080793          	addi	a5,a6,80
80001f7c:	00278833          	add	a6,a5,sp
80001f80:	00c12703          	lw	a4,12(sp)
80001f84:	fc082783          	lw	a5,-64(a6)
80001f88:	00074703          	lbu	a4,0(a4)
80001f8c:	00178793          	addi	a5,a5,1
80001f90:	fcf82023          	sw	a5,-64(a6)
80001f94:	fc071ae3          	bnez	a4,80001f68 <core_bench_state+0x80>
80001f98:	01612623          	sw	s6,12(sp)
80001f9c:	018b0c33          	add	s8,s6,s8
80001fa0:	000b0793          	mv	a5,s6
80001fa4:	02c00693          	li	a3,44
80001fa8:	018b6663          	bltu	s6,s8,80001fb4 <core_bench_state+0xcc>
80001fac:	0e40006f          	j	80002090 <core_bench_state+0x1a8>
80001fb0:	0007c403          	lbu	s0,0(a5)
80001fb4:	01744733          	xor	a4,s0,s7
80001fb8:	00d40463          	beq	s0,a3,80001fc0 <core_bench_state+0xd8>
80001fbc:	00e78023          	sb	a4,0(a5)
80001fc0:	014787b3          	add	a5,a5,s4
80001fc4:	ff87e6e3          	bltu	a5,s8,80001fb0 <core_bench_state+0xc8>
80001fc8:	000b4403          	lbu	s0,0(s6)
80001fcc:	01612623          	sw	s6,12(sp)
80001fd0:	04040063          	beqz	s0,80002010 <core_bench_state+0x128>
80001fd4:	00c10c93          	addi	s9,sp,12
80001fd8:	03010593          	addi	a1,sp,48
80001fdc:	000c8513          	mv	a0,s9
80001fe0:	b69ff0ef          	jal	ra,80001b48 <core_state_transition>
80001fe4:	00251613          	slli	a2,a0,0x2
80001fe8:	05060793          	addi	a5,a2,80
80001fec:	00278633          	add	a2,a5,sp
80001ff0:	00c12703          	lw	a4,12(sp)
80001ff4:	fc062783          	lw	a5,-64(a2)
80001ff8:	00074703          	lbu	a4,0(a4)
80001ffc:	00178793          	addi	a5,a5,1
80002000:	fcf62023          	sw	a5,-64(a2)
80002004:	fc071ae3          	bnez	a4,80001fd8 <core_bench_state+0xf0>
80002008:	01612623          	sw	s6,12(sp)
8000200c:	038b7263          	bgeu	s6,s8,80002030 <core_bench_state+0x148>
80002010:	02c00713          	li	a4,44
80002014:	0080006f          	j	8000201c <core_bench_state+0x134>
80002018:	000b4403          	lbu	s0,0(s6)
8000201c:	015447b3          	xor	a5,s0,s5
80002020:	00e40463          	beq	s0,a4,80002028 <core_bench_state+0x140>
80002024:	00fb0023          	sb	a5,0(s6)
80002028:	014b0b33          	add	s6,s6,s4
8000202c:	ff8b66e3          	bltu	s6,s8,80002018 <core_bench_state+0x130>
80002030:	02048413          	addi	s0,s1,32
80002034:	0004a503          	lw	a0,0(s1)
80002038:	00090593          	mv	a1,s2
8000203c:	00448493          	addi	s1,s1,4
80002040:	8bcfe0ef          	jal	ra,800000fc <crcu32>
80002044:	00050593          	mv	a1,a0
80002048:	0009a503          	lw	a0,0(s3)
8000204c:	00498993          	addi	s3,s3,4
80002050:	8acfe0ef          	jal	ra,800000fc <crcu32>
80002054:	00050913          	mv	s2,a0
80002058:	fc849ee3          	bne	s1,s0,80002034 <core_bench_state+0x14c>
8000205c:	07c12083          	lw	ra,124(sp)
80002060:	07812403          	lw	s0,120(sp)
80002064:	07412483          	lw	s1,116(sp)
80002068:	07012903          	lw	s2,112(sp)
8000206c:	06c12983          	lw	s3,108(sp)
80002070:	06812a03          	lw	s4,104(sp)
80002074:	06412a83          	lw	s5,100(sp)
80002078:	06012b03          	lw	s6,96(sp)
8000207c:	05c12b83          	lw	s7,92(sp)
80002080:	05812c03          	lw	s8,88(sp)
80002084:	05412c83          	lw	s9,84(sp)
80002088:	08010113          	addi	sp,sp,128
8000208c:	00008067          	ret
80002090:	f40412e3          	bnez	s0,80001fd4 <core_bench_state+0xec>
80002094:	f9dff06f          	j	80002030 <core_bench_state+0x148>

80002098 <__am_timer_config>:
80002098:	00100793          	li	a5,1
8000209c:	00f50023          	sb	a5,0(a0)
800020a0:	00f500a3          	sb	a5,1(a0)
800020a4:	00008067          	ret

800020a8 <__am_input_config>:
800020a8:	00100793          	li	a5,1
800020ac:	00f50023          	sb	a5,0(a0)
800020b0:	00008067          	ret

800020b4 <__am_uart_config>:
800020b4:	00050023          	sb	zero,0(a0)
800020b8:	00008067          	ret

800020bc <__am_net_config>:
800020bc:	00050023          	sb	zero,0(a0)
800020c0:	00008067          	ret

800020c4 <fail>:
800020c4:	ff010113          	addi	sp,sp,-16
800020c8:	00812423          	sw	s0,8(sp)
800020cc:	00112623          	sw	ra,12(sp)
800020d0:	00001417          	auipc	s0,0x1
800020d4:	1f840413          	addi	s0,s0,504 # 800032c8 <scipat+0x10>
800020d8:	04100513          	li	a0,65
800020dc:	00140413          	addi	s0,s0,1
800020e0:	178000ef          	jal	ra,80002258 <putch>
800020e4:	00044503          	lbu	a0,0(s0)
800020e8:	fe051ae3          	bnez	a0,800020dc <fail+0x18>
800020ec:	00001417          	auipc	s0,0x1
800020f0:	1e840413          	addi	s0,s0,488 # 800032d4 <scipat+0x1c>
800020f4:	06100513          	li	a0,97
800020f8:	00140413          	addi	s0,s0,1
800020fc:	15c000ef          	jal	ra,80002258 <putch>
80002100:	00044503          	lbu	a0,0(s0)
80002104:	fe051ae3          	bnez	a0,800020f8 <fail+0x34>
80002108:	00001417          	auipc	s0,0x1
8000210c:	1e840413          	addi	s0,s0,488 # 800032f0 <scipat+0x38>
80002110:	02000513          	li	a0,32
80002114:	00140413          	addi	s0,s0,1
80002118:	140000ef          	jal	ra,80002258 <putch>
8000211c:	00044503          	lbu	a0,0(s0)
80002120:	fe051ae3          	bnez	a0,80002114 <fail+0x50>
80002124:	00100513          	li	a0,1
80002128:	13c000ef          	jal	ra,80002264 <halt>

8000212c <ioe_init>:
8000212c:	ff010113          	addi	sp,sp,-16
80002130:	00112623          	sw	ra,12(sp)
80002134:	00001797          	auipc	a5,0x1
80002138:	27478793          	addi	a5,a5,628 # 800033a8 <lut>
8000213c:	00001697          	auipc	a3,0x1
80002140:	46c68693          	addi	a3,a3,1132 # 800035a8 <static_memblk>
80002144:	00000617          	auipc	a2,0x0
80002148:	f8060613          	addi	a2,a2,-128 # 800020c4 <fail>
8000214c:	00c0006f          	j	80002158 <ioe_init+0x2c>
80002150:	00478793          	addi	a5,a5,4
80002154:	00d78c63          	beq	a5,a3,8000216c <ioe_init+0x40>
80002158:	0007a703          	lw	a4,0(a5)
8000215c:	fe071ae3          	bnez	a4,80002150 <ioe_init+0x24>
80002160:	00c7a023          	sw	a2,0(a5)
80002164:	00478793          	addi	a5,a5,4
80002168:	fed798e3          	bne	a5,a3,80002158 <ioe_init+0x2c>
8000216c:	080000ef          	jal	ra,800021ec <__am_gpu_init>
80002170:	034000ef          	jal	ra,800021a4 <__am_timer_init>
80002174:	0b8000ef          	jal	ra,8000222c <__am_audio_init>
80002178:	00c12083          	lw	ra,12(sp)
8000217c:	00100513          	li	a0,1
80002180:	01010113          	addi	sp,sp,16
80002184:	00008067          	ret

80002188 <ioe_read>:
80002188:	00251513          	slli	a0,a0,0x2
8000218c:	00001797          	auipc	a5,0x1
80002190:	21c78793          	addi	a5,a5,540 # 800033a8 <lut>
80002194:	00a787b3          	add	a5,a5,a0
80002198:	0007a783          	lw	a5,0(a5)
8000219c:	00058513          	mv	a0,a1
800021a0:	00078067          	jr	a5

800021a4 <__am_timer_init>:
800021a4:	00008067          	ret

800021a8 <__am_timer_uptime>:
800021a8:	a00007b7          	lui	a5,0xa0000
800021ac:	04c7a703          	lw	a4,76(a5) # a000004c <_end+0x1fff404c>
800021b0:	0487a783          	lw	a5,72(a5)
800021b4:	00e52223          	sw	a4,4(a0)
800021b8:	00f52023          	sw	a5,0(a0)
800021bc:	00008067          	ret

800021c0 <__am_timer_rtc>:
800021c0:	76c00793          	li	a5,1900
800021c4:	00052a23          	sw	zero,20(a0)
800021c8:	00052823          	sw	zero,16(a0)
800021cc:	00052623          	sw	zero,12(a0)
800021d0:	00052423          	sw	zero,8(a0)
800021d4:	00052223          	sw	zero,4(a0)
800021d8:	00f52023          	sw	a5,0(a0)
800021dc:	00008067          	ret

800021e0 <__am_input_keybrd>:
800021e0:	00050023          	sb	zero,0(a0)
800021e4:	00052223          	sw	zero,4(a0)
800021e8:	00008067          	ret

800021ec <__am_gpu_init>:
800021ec:	00008067          	ret

800021f0 <__am_gpu_config>:
800021f0:	00100793          	li	a5,1
800021f4:	00f51023          	sh	a5,0(a0)
800021f8:	00052223          	sw	zero,4(a0)
800021fc:	00052423          	sw	zero,8(a0)
80002200:	00052623          	sw	zero,12(a0)
80002204:	00008067          	ret

80002208 <__am_gpu_fbdraw>:
80002208:	01454783          	lbu	a5,20(a0)
8000220c:	00078863          	beqz	a5,8000221c <__am_gpu_fbdraw+0x14>
80002210:	a00007b7          	lui	a5,0xa0000
80002214:	00100713          	li	a4,1
80002218:	10e7a223          	sw	a4,260(a5) # a0000104 <_end+0x1fff4104>
8000221c:	00008067          	ret

80002220 <__am_gpu_status>:
80002220:	00100793          	li	a5,1
80002224:	00f50023          	sb	a5,0(a0)
80002228:	00008067          	ret

8000222c <__am_audio_init>:
8000222c:	00008067          	ret

80002230 <__am_audio_config>:
80002230:	00050023          	sb	zero,0(a0)
80002234:	00008067          	ret

80002238 <__am_audio_ctrl>:
80002238:	00008067          	ret

8000223c <__am_audio_status>:
8000223c:	00052023          	sw	zero,0(a0)
80002240:	00008067          	ret

80002244 <__am_audio_play>:
80002244:	00008067          	ret

80002248 <__am_disk_config>:
80002248:	00050023          	sb	zero,0(a0)
8000224c:	00008067          	ret

80002250 <__am_disk_status>:
80002250:	00008067          	ret

80002254 <__am_disk_blkio>:
80002254:	00008067          	ret

80002258 <putch>:
80002258:	a00007b7          	lui	a5,0xa0000
8000225c:	3ea78c23          	sb	a0,1016(a5) # a00003f8 <_end+0x1fff43f8>
80002260:	00008067          	ret

80002264 <halt>:
80002264:	00050513          	mv	a0,a0
80002268:	00100073          	ebreak
8000226c:	0000006f          	j	8000226c <halt+0x8>

80002270 <_trm_init>:
80002270:	ff010113          	addi	sp,sp,-16
80002274:	00001517          	auipc	a0,0x1
80002278:	12450513          	addi	a0,a0,292 # 80003398 <mainargs>
8000227c:	00112623          	sw	ra,12(sp)
80002280:	f75fe0ef          	jal	ra,800011f4 <main>
80002284:	00050513          	mv	a0,a0
80002288:	00100073          	ebreak
8000228c:	0000006f          	j	8000228c <_trm_init+0x1c>

80002290 <__udivmoddi4>:
80002290:	fe010113          	addi	sp,sp,-32
80002294:	01212823          	sw	s2,16(sp)
80002298:	01412423          	sw	s4,8(sp)
8000229c:	01512223          	sw	s5,4(sp)
800022a0:	01612023          	sw	s6,0(sp)
800022a4:	00112e23          	sw	ra,28(sp)
800022a8:	00812c23          	sw	s0,24(sp)
800022ac:	00912a23          	sw	s1,20(sp)
800022b0:	01312623          	sw	s3,12(sp)
800022b4:	00068a93          	mv	s5,a3
800022b8:	00050913          	mv	s2,a0
800022bc:	00060b13          	mv	s6,a2
800022c0:	00070a13          	mv	s4,a4
800022c4:	04059463          	bnez	a1,8000230c <__udivmoddi4+0x7c>
800022c8:	18069863          	bnez	a3,80002458 <__udivmoddi4+0x1c8>
800022cc:	00070863          	beqz	a4,800022dc <__udivmoddi4+0x4c>
800022d0:	02c577b3          	remu	a5,a0,a2
800022d4:	00072223          	sw	zero,4(a4)
800022d8:	00f72023          	sw	a5,0(a4)
800022dc:	03695533          	divu	a0,s2,s6
800022e0:	00000593          	li	a1,0
800022e4:	01c12083          	lw	ra,28(sp)
800022e8:	01812403          	lw	s0,24(sp)
800022ec:	01412483          	lw	s1,20(sp)
800022f0:	01012903          	lw	s2,16(sp)
800022f4:	00c12983          	lw	s3,12(sp)
800022f8:	00812a03          	lw	s4,8(sp)
800022fc:	00412a83          	lw	s5,4(sp)
80002300:	00012b03          	lw	s6,0(sp)
80002304:	02010113          	addi	sp,sp,32
80002308:	00008067          	ret
8000230c:	00058993          	mv	s3,a1
80002310:	00058413          	mv	s0,a1
80002314:	0e061863          	bnez	a2,80002404 <__udivmoddi4+0x174>
80002318:	1a068263          	beqz	a3,800024bc <__udivmoddi4+0x22c>
8000231c:	20050463          	beqz	a0,80002524 <__udivmoddi4+0x294>
80002320:	fff68793          	addi	a5,a3,-1
80002324:	00d7f733          	and	a4,a5,a3
80002328:	22070c63          	beqz	a4,80002560 <__udivmoddi4+0x2d0>
8000232c:	00068513          	mv	a0,a3
80002330:	28c000ef          	jal	ra,800025bc <__clzsi2>
80002334:	00050493          	mv	s1,a0
80002338:	00098513          	mv	a0,s3
8000233c:	280000ef          	jal	ra,800025bc <__clzsi2>
80002340:	40a48733          	sub	a4,s1,a0
80002344:	01e00793          	li	a5,30
80002348:	16e7ec63          	bltu	a5,a4,800024c0 <__udivmoddi4+0x230>
8000234c:	00170713          	addi	a4,a4,1
80002350:	02000e93          	li	t4,32
80002354:	40ee8eb3          	sub	t4,t4,a4
80002358:	01d99633          	sll	a2,s3,t4
8000235c:	00e956b3          	srl	a3,s2,a4
80002360:	00e9d7b3          	srl	a5,s3,a4
80002364:	01d91eb3          	sll	t4,s2,t4
80002368:	00d66433          	or	s0,a2,a3
8000236c:	00000493          	li	s1,0
80002370:	00000313          	li	t1,0
80002374:	01fed693          	srli	a3,t4,0x1f
80002378:	00141813          	slli	a6,s0,0x1
8000237c:	00d86833          	or	a6,a6,a3
80002380:	01f45413          	srli	s0,s0,0x1f
80002384:	00179793          	slli	a5,a5,0x1
80002388:	0087e7b3          	or	a5,a5,s0
8000238c:	410b0e33          	sub	t3,s6,a6
80002390:	01cb36b3          	sltu	a3,s6,t3
80002394:	40fa88b3          	sub	a7,s5,a5
80002398:	40d888b3          	sub	a7,a7,a3
8000239c:	001e3e13          	seqz	t3,t3
800023a0:	41c888b3          	sub	a7,a7,t3
800023a4:	41f8de13          	srai	t3,a7,0x1f
800023a8:	016e7433          	and	s0,t3,s6
800023ac:	40880433          	sub	s0,a6,s0
800023b0:	015e7e33          	and	t3,t3,s5
800023b4:	01f4d693          	srli	a3,s1,0x1f
800023b8:	001e9e93          	slli	t4,t4,0x1
800023bc:	00149493          	slli	s1,s1,0x1
800023c0:	00883833          	sltu	a6,a6,s0
800023c4:	41c787b3          	sub	a5,a5,t3
800023c8:	fff70713          	addi	a4,a4,-1
800023cc:	0064e4b3          	or	s1,s1,t1
800023d0:	00deeeb3          	or	t4,t4,a3
800023d4:	01f8d313          	srli	t1,a7,0x1f
800023d8:	410787b3          	sub	a5,a5,a6
800023dc:	f8071ce3          	bnez	a4,80002374 <__udivmoddi4+0xe4>
800023e0:	01f4d993          	srli	s3,s1,0x1f
800023e4:	001e9e93          	slli	t4,t4,0x1
800023e8:	00149493          	slli	s1,s1,0x1
800023ec:	0064e533          	or	a0,s1,t1
800023f0:	01d9e5b3          	or	a1,s3,t4
800023f4:	ee0a08e3          	beqz	s4,800022e4 <__udivmoddi4+0x54>
800023f8:	008a2023          	sw	s0,0(s4)
800023fc:	00fa2223          	sw	a5,4(s4)
80002400:	ee5ff06f          	j	800022e4 <__udivmoddi4+0x54>
80002404:	06068663          	beqz	a3,80002470 <__udivmoddi4+0x1e0>
80002408:	00068513          	mv	a0,a3
8000240c:	1b0000ef          	jal	ra,800025bc <__clzsi2>
80002410:	00050493          	mv	s1,a0
80002414:	00098513          	mv	a0,s3
80002418:	1a4000ef          	jal	ra,800025bc <__clzsi2>
8000241c:	40a48733          	sub	a4,s1,a0
80002420:	01f00793          	li	a5,31
80002424:	08e7ee63          	bltu	a5,a4,800024c0 <__udivmoddi4+0x230>
80002428:	00170713          	addi	a4,a4,1
8000242c:	02000793          	li	a5,32
80002430:	00090e93          	mv	t4,s2
80002434:	14f70863          	beq	a4,a5,80002584 <__udivmoddi4+0x2f4>
80002438:	40e786b3          	sub	a3,a5,a4
8000243c:	00e95633          	srl	a2,s2,a4
80002440:	00d995b3          	sll	a1,s3,a3
80002444:	00e9d7b3          	srl	a5,s3,a4
80002448:	00d91eb3          	sll	t4,s2,a3
8000244c:	00c5e433          	or	s0,a1,a2
80002450:	00000493          	li	s1,0
80002454:	f1dff06f          	j	80002370 <__udivmoddi4+0xe0>
80002458:	06070663          	beqz	a4,800024c4 <__udivmoddi4+0x234>
8000245c:	00aa2023          	sw	a0,0(s4)
80002460:	00072223          	sw	zero,4(a4)
80002464:	00000513          	li	a0,0
80002468:	00000593          	li	a1,0
8000246c:	e79ff06f          	j	800022e4 <__udivmoddi4+0x54>
80002470:	fff60793          	addi	a5,a2,-1
80002474:	00c7f733          	and	a4,a5,a2
80002478:	04071c63          	bnez	a4,800024d0 <__udivmoddi4+0x240>
8000247c:	000a0863          	beqz	s4,8000248c <__udivmoddi4+0x1fc>
80002480:	00a7f7b3          	and	a5,a5,a0
80002484:	00fa2023          	sw	a5,0(s4)
80002488:	000a2223          	sw	zero,4(s4)
8000248c:	00100793          	li	a5,1
80002490:	0cfb0263          	beq	s6,a5,80002554 <__udivmoddi4+0x2c4>
80002494:	000b0513          	mv	a0,s6
80002498:	1bc000ef          	jal	ra,80002654 <__ctzsi2>
8000249c:	02000713          	li	a4,32
800024a0:	40a70733          	sub	a4,a4,a0
800024a4:	00050793          	mv	a5,a0
800024a8:	00e99733          	sll	a4,s3,a4
800024ac:	00a95933          	srl	s2,s2,a0
800024b0:	01276533          	or	a0,a4,s2
800024b4:	00f9d5b3          	srl	a1,s3,a5
800024b8:	e2dff06f          	j	800022e4 <__udivmoddi4+0x54>
800024bc:	00100073          	ebreak
800024c0:	080a1063          	bnez	s4,80002540 <__udivmoddi4+0x2b0>
800024c4:	00000513          	li	a0,0
800024c8:	00000593          	li	a1,0
800024cc:	e19ff06f          	j	800022e4 <__udivmoddi4+0x54>
800024d0:	00060513          	mv	a0,a2
800024d4:	00068493          	mv	s1,a3
800024d8:	0e4000ef          	jal	ra,800025bc <__clzsi2>
800024dc:	00050993          	mv	s3,a0
800024e0:	00040513          	mv	a0,s0
800024e4:	0d8000ef          	jal	ra,800025bc <__clzsi2>
800024e8:	40a98533          	sub	a0,s3,a0
800024ec:	02150713          	addi	a4,a0,33
800024f0:	02000693          	li	a3,32
800024f4:	00090e93          	mv	t4,s2
800024f8:	00000793          	li	a5,0
800024fc:	e6d70ae3          	beq	a4,a3,80002370 <__udivmoddi4+0xe0>
80002500:	01f00613          	li	a2,31
80002504:	08e66663          	bltu	a2,a4,80002590 <__udivmoddi4+0x300>
80002508:	40e686b3          	sub	a3,a3,a4
8000250c:	00e95633          	srl	a2,s2,a4
80002510:	00d415b3          	sll	a1,s0,a3
80002514:	00e457b3          	srl	a5,s0,a4
80002518:	00d91eb3          	sll	t4,s2,a3
8000251c:	00c5e433          	or	s0,a1,a2
80002520:	e51ff06f          	j	80002370 <__udivmoddi4+0xe0>
80002524:	00070863          	beqz	a4,80002534 <__udivmoddi4+0x2a4>
80002528:	02d5f7b3          	remu	a5,a1,a3
8000252c:	00072023          	sw	zero,0(a4)
80002530:	00f72223          	sw	a5,4(a4)
80002534:	0359d533          	divu	a0,s3,s5
80002538:	00000593          	li	a1,0
8000253c:	da9ff06f          	j	800022e4 <__udivmoddi4+0x54>
80002540:	012a2023          	sw	s2,0(s4)
80002544:	013a2223          	sw	s3,4(s4)
80002548:	00000513          	li	a0,0
8000254c:	00000593          	li	a1,0
80002550:	d95ff06f          	j	800022e4 <__udivmoddi4+0x54>
80002554:	00090513          	mv	a0,s2
80002558:	00098593          	mv	a1,s3
8000255c:	d89ff06f          	j	800022e4 <__udivmoddi4+0x54>
80002560:	000a0863          	beqz	s4,80002570 <__udivmoddi4+0x2e0>
80002564:	00b7f7b3          	and	a5,a5,a1
80002568:	00aa2023          	sw	a0,0(s4)
8000256c:	00fa2223          	sw	a5,4(s4)
80002570:	000a8513          	mv	a0,s5
80002574:	0e0000ef          	jal	ra,80002654 <__ctzsi2>
80002578:	00a9d533          	srl	a0,s3,a0
8000257c:	00000593          	li	a1,0
80002580:	d65ff06f          	j	800022e4 <__udivmoddi4+0x54>
80002584:	00000793          	li	a5,0
80002588:	00000493          	li	s1,0
8000258c:	de5ff06f          	j	80002370 <__udivmoddi4+0xe0>
80002590:	04000693          	li	a3,64
80002594:	40e686b3          	sub	a3,a3,a4
80002598:	00150513          	addi	a0,a0,1
8000259c:	00d914b3          	sll	s1,s2,a3
800025a0:	00a95eb3          	srl	t4,s2,a0
800025a4:	00d416b3          	sll	a3,s0,a3
800025a8:	01d6eeb3          	or	t4,a3,t4
800025ac:	00a45433          	srl	s0,s0,a0
800025b0:	dc1ff06f          	j	80002370 <__udivmoddi4+0xe0>

800025b4 <__udivdi3>:
800025b4:	00000713          	li	a4,0
800025b8:	cd9ff06f          	j	80002290 <__udivmoddi4>

800025bc <__clzsi2>:
800025bc:	ffff05b7          	lui	a1,0xffff0
800025c0:	00b575b3          	and	a1,a0,a1
800025c4:	0015b593          	seqz	a1,a1
800025c8:	00459593          	slli	a1,a1,0x4
800025cc:	01000793          	li	a5,16
800025d0:	40b787b3          	sub	a5,a5,a1
800025d4:	00010737          	lui	a4,0x10
800025d8:	00f557b3          	srl	a5,a0,a5
800025dc:	f0070713          	addi	a4,a4,-256 # ff00 <_entry_offset+0xff00>
800025e0:	00e7f733          	and	a4,a5,a4
800025e4:	00173713          	seqz	a4,a4
800025e8:	00371713          	slli	a4,a4,0x3
800025ec:	00800693          	li	a3,8
800025f0:	40e686b3          	sub	a3,a3,a4
800025f4:	00d7d7b3          	srl	a5,a5,a3
800025f8:	0f07f613          	andi	a2,a5,240
800025fc:	00163613          	seqz	a2,a2
80002600:	00261613          	slli	a2,a2,0x2
80002604:	00400693          	li	a3,4
80002608:	40c686b3          	sub	a3,a3,a2
8000260c:	00d7d7b3          	srl	a5,a5,a3
80002610:	00c7f693          	andi	a3,a5,12
80002614:	0016b693          	seqz	a3,a3
80002618:	00169693          	slli	a3,a3,0x1
8000261c:	00200813          	li	a6,2
80002620:	40d80533          	sub	a0,a6,a3
80002624:	00a7d7b3          	srl	a5,a5,a0
80002628:	0017d513          	srli	a0,a5,0x1
8000262c:	00154513          	xori	a0,a0,1
80002630:	00b70733          	add	a4,a4,a1
80002634:	00157513          	andi	a0,a0,1
80002638:	00e60633          	add	a2,a2,a4
8000263c:	40f80833          	sub	a6,a6,a5
80002640:	40a00733          	neg	a4,a0
80002644:	01077733          	and	a4,a4,a6
80002648:	00c68533          	add	a0,a3,a2
8000264c:	00a70533          	add	a0,a4,a0
80002650:	00008067          	ret

80002654 <__ctzsi2>:
80002654:	01051593          	slli	a1,a0,0x10
80002658:	0105d593          	srli	a1,a1,0x10
8000265c:	0015b593          	seqz	a1,a1
80002660:	00459593          	slli	a1,a1,0x4
80002664:	00b557b3          	srl	a5,a0,a1
80002668:	0ff7f613          	zext.b	a2,a5
8000266c:	00163613          	seqz	a2,a2
80002670:	00361613          	slli	a2,a2,0x3
80002674:	00c7d7b3          	srl	a5,a5,a2
80002678:	00f7f693          	andi	a3,a5,15
8000267c:	0016b693          	seqz	a3,a3
80002680:	00269693          	slli	a3,a3,0x2
80002684:	00d7d7b3          	srl	a5,a5,a3
80002688:	0037f713          	andi	a4,a5,3
8000268c:	00173713          	seqz	a4,a4
80002690:	00171713          	slli	a4,a4,0x1
80002694:	00e7d7b3          	srl	a5,a5,a4
80002698:	0017d513          	srli	a0,a5,0x1
8000269c:	00b60633          	add	a2,a2,a1
800026a0:	0017f793          	andi	a5,a5,1
800026a4:	00157593          	andi	a1,a0,1
800026a8:	00200513          	li	a0,2
800026ac:	00c686b3          	add	a3,a3,a2
800026b0:	40b50533          	sub	a0,a0,a1
800026b4:	fff78793          	addi	a5,a5,-1
800026b8:	00f57533          	and	a0,a0,a5
800026bc:	00d70733          	add	a4,a4,a3
800026c0:	00e50533          	add	a0,a0,a4
800026c4:	00008067          	ret

800026c8 <int2str>:
800026c8:	fb010113          	addi	sp,sp,-80
800026cc:	03312e23          	sw	s3,60(sp)
800026d0:	05412983          	lw	s3,84(sp)
800026d4:	04812423          	sw	s0,72(sp)
800026d8:	04912223          	sw	s1,68(sp)
800026dc:	0009a303          	lw	t1,0(s3)
800026e0:	03412c23          	sw	s4,56(sp)
800026e4:	03512a23          	sw	s5,52(sp)
800026e8:	03612823          	sw	s6,48(sp)
800026ec:	03812423          	sw	s8,40(sp)
800026f0:	03912223          	sw	s9,36(sp)
800026f4:	01b12e23          	sw	s11,28(sp)
800026f8:	04112623          	sw	ra,76(sp)
800026fc:	05212023          	sw	s2,64(sp)
80002700:	03712623          	sw	s7,44(sp)
80002704:	03a12023          	sw	s10,32(sp)
80002708:	05012403          	lw	s0,80(sp)
8000270c:	00050e13          	mv	t3,a0
80002710:	00058a93          	mv	s5,a1
80002714:	00068c13          	mv	s8,a3
80002718:	00078a13          	mv	s4,a5
8000271c:	00080b13          	mv	s6,a6
80002720:	00088d93          	mv	s11,a7
80002724:	00030c93          	mv	s9,t1
80002728:	00000493          	li	s1,0
8000272c:	00070463          	beqz	a4,80002734 <int2str+0x6c>
80002730:	18054663          	bltz	a0,800028bc <int2str+0x1f4>
80002734:	00410b93          	addi	s7,sp,4
80002738:	00900593          	li	a1,9
8000273c:	00c0006f          	j	80002748 <int2str+0x80>
80002740:	00090493          	mv	s1,s2
80002744:	00078e13          	mv	t3,a5
80002748:	02ce77b3          	remu	a5,t3,a2
8000274c:	0ff7f713          	zext.b	a4,a5
80002750:	05770693          	addi	a3,a4,87
80002754:	03070713          	addi	a4,a4,48
80002758:	0ff77713          	zext.b	a4,a4
8000275c:	00f5f463          	bgeu	a1,a5,80002764 <int2str+0x9c>
80002760:	0ff6f713          	zext.b	a4,a3
80002764:	00148913          	addi	s2,s1,1
80002768:	012b87b3          	add	a5,s7,s2
8000276c:	fee78fa3          	sb	a4,-1(a5)
80002770:	02ce57b3          	divu	a5,t3,a2
80002774:	fcce76e3          	bgeu	t3,a2,80002740 <int2str+0x78>
80002778:	140a1c63          	bnez	s4,800028d0 <int2str+0x208>
8000277c:	15695a63          	bge	s2,s6,800028d0 <int2str+0x208>
80002780:	000a8793          	mv	a5,s5
80002784:	01c0006f          	j	800027a0 <int2str+0xd8>
80002788:	01b78023          	sb	s11,0(a5)
8000278c:	0009a303          	lw	t1,0(s3)
80002790:	000d0793          	mv	a5,s10
80002794:	00130313          	addi	t1,t1,1
80002798:	0069a023          	sw	t1,0(s3)
8000279c:	03690a63          	beq	s2,s6,800027d0 <int2str+0x108>
800027a0:	fffb0b13          	addi	s6,s6,-1
800027a4:	fe8058e3          	blez	s0,80002794 <int2str+0xcc>
800027a8:	00178d13          	addi	s10,a5,1
800027ac:	fff40413          	addi	s0,s0,-1
800027b0:	fc0c0ce3          	beqz	s8,80002788 <int2str+0xc0>
800027b4:	000d8513          	mv	a0,s11
800027b8:	aa1ff0ef          	jal	ra,80002258 <putch>
800027bc:	0009a303          	lw	t1,0(s3)
800027c0:	000d0793          	mv	a5,s10
800027c4:	00130313          	addi	t1,t1,1
800027c8:	0069a023          	sw	t1,0(s3)
800027cc:	fd691ae3          	bne	s2,s6,800027a0 <int2str+0xd8>
800027d0:	009b84b3          	add	s1,s7,s1
800027d4:	02805063          	blez	s0,800027f4 <int2str+0x12c>
800027d8:	0004c503          	lbu	a0,0(s1)
800027dc:	00178b13          	addi	s6,a5,1
800027e0:	fff40413          	addi	s0,s0,-1
800027e4:	020c1663          	bnez	s8,80002810 <int2str+0x148>
800027e8:	00a78023          	sb	a0,0(a5)
800027ec:	0009a303          	lw	t1,0(s3)
800027f0:	000b0793          	mv	a5,s6
800027f4:	00130713          	addi	a4,t1,1
800027f8:	00e9a023          	sw	a4,0(s3)
800027fc:	fff48693          	addi	a3,s1,-1
80002800:	00070313          	mv	t1,a4
80002804:	029b8663          	beq	s7,s1,80002830 <int2str+0x168>
80002808:	00068493          	mv	s1,a3
8000280c:	fc9ff06f          	j	800027d4 <int2str+0x10c>
80002810:	a49ff0ef          	jal	ra,80002258 <putch>
80002814:	0009a303          	lw	t1,0(s3)
80002818:	000b0793          	mv	a5,s6
8000281c:	fff48693          	addi	a3,s1,-1
80002820:	00130713          	addi	a4,t1,1
80002824:	00e9a023          	sw	a4,0(s3)
80002828:	00070313          	mv	t1,a4
8000282c:	fc9b9ee3          	bne	s7,s1,80002808 <int2str+0x140>
80002830:	020a1063          	bnez	s4,80002850 <int2str+0x188>
80002834:	0480006f          	j	8000287c <int2str+0x1b4>
80002838:	02000713          	li	a4,32
8000283c:	00e78023          	sb	a4,0(a5)
80002840:	0009a703          	lw	a4,0(s3)
80002844:	00048793          	mv	a5,s1
80002848:	00170713          	addi	a4,a4,1
8000284c:	00e9a023          	sw	a4,0(s3)
80002850:	41970633          	sub	a2,a4,s9
80002854:	03265463          	bge	a2,s2,8000287c <int2str+0x1b4>
80002858:	fe8058e3          	blez	s0,80002848 <int2str+0x180>
8000285c:	00178493          	addi	s1,a5,1
80002860:	fff40413          	addi	s0,s0,-1
80002864:	fc0c0ae3          	beqz	s8,80002838 <int2str+0x170>
80002868:	02000513          	li	a0,32
8000286c:	9edff0ef          	jal	ra,80002258 <putch>
80002870:	0009a703          	lw	a4,0(s3)
80002874:	00048793          	mv	a5,s1
80002878:	fd1ff06f          	j	80002848 <int2str+0x180>
8000287c:	04c12083          	lw	ra,76(sp)
80002880:	04812403          	lw	s0,72(sp)
80002884:	04412483          	lw	s1,68(sp)
80002888:	04012903          	lw	s2,64(sp)
8000288c:	03c12983          	lw	s3,60(sp)
80002890:	03812a03          	lw	s4,56(sp)
80002894:	03012b03          	lw	s6,48(sp)
80002898:	02c12b83          	lw	s7,44(sp)
8000289c:	02812c03          	lw	s8,40(sp)
800028a0:	02412c83          	lw	s9,36(sp)
800028a4:	02012d03          	lw	s10,32(sp)
800028a8:	01c12d83          	lw	s11,28(sp)
800028ac:	41578533          	sub	a0,a5,s5
800028b0:	03412a83          	lw	s5,52(sp)
800028b4:	05010113          	addi	sp,sp,80
800028b8:	00008067          	ret
800028bc:	02d00793          	li	a5,45
800028c0:	40a00e33          	neg	t3,a0
800028c4:	00f10223          	sb	a5,4(sp)
800028c8:	00100493          	li	s1,1
800028cc:	e69ff06f          	j	80002734 <int2str+0x6c>
800028d0:	000b0913          	mv	s2,s6
800028d4:	000a8793          	mv	a5,s5
800028d8:	009b84b3          	add	s1,s7,s1
800028dc:	ef9ff06f          	j	800027d4 <int2str+0x10c>

800028e0 <printstr>:
800028e0:	fd010113          	addi	sp,sp,-48
800028e4:	01512a23          	sw	s5,20(sp)
800028e8:	00068a93          	mv	s5,a3
800028ec:	02812423          	sw	s0,40(sp)
800028f0:	02912223          	sw	s1,36(sp)
800028f4:	03212023          	sw	s2,32(sp)
800028f8:	01312e23          	sw	s3,28(sp)
800028fc:	01412c23          	sw	s4,24(sp)
80002900:	01612823          	sw	s6,16(sp)
80002904:	01712623          	sw	s7,12(sp)
80002908:	02112623          	sw	ra,44(sp)
8000290c:	01812423          	sw	s8,8(sp)
80002910:	01912223          	sw	s9,4(sp)
80002914:	00082983          	lw	s3,0(a6)
80002918:	00080493          	mv	s1,a6
8000291c:	00050b13          	mv	s6,a0
80002920:	00058a13          	mv	s4,a1
80002924:	00060b93          	mv	s7,a2
80002928:	00070913          	mv	s2,a4
8000292c:	00078413          	mv	s0,a5
80002930:	490000ef          	jal	ra,80002dc0 <strlen>
80002934:	120a9463          	bnez	s5,80002a5c <printstr+0x17c>
80002938:	00050c13          	mv	s8,a0
8000293c:	000a0793          	mv	a5,s4
80002940:	03254263          	blt	a0,s2,80002964 <printstr+0x84>
80002944:	0500006f          	j	80002994 <printstr+0xb4>
80002948:	02000713          	li	a4,32
8000294c:	00e78023          	sb	a4,0(a5)
80002950:	000c8793          	mv	a5,s9
80002954:	0004a703          	lw	a4,0(s1)
80002958:	00170713          	addi	a4,a4,1
8000295c:	00e4a023          	sw	a4,0(s1)
80002960:	032c0a63          	beq	s8,s2,80002994 <printstr+0xb4>
80002964:	fff90913          	addi	s2,s2,-1
80002968:	fe8056e3          	blez	s0,80002954 <printstr+0x74>
8000296c:	00178c93          	addi	s9,a5,1
80002970:	fff40413          	addi	s0,s0,-1
80002974:	fc0b8ae3          	beqz	s7,80002948 <printstr+0x68>
80002978:	02000513          	li	a0,32
8000297c:	8ddff0ef          	jal	ra,80002258 <putch>
80002980:	0004a703          	lw	a4,0(s1)
80002984:	000c8793          	mv	a5,s9
80002988:	00170713          	addi	a4,a4,1
8000298c:	00e4a023          	sw	a4,0(s1)
80002990:	fd2c1ae3          	bne	s8,s2,80002964 <printstr+0x84>
80002994:	000b4503          	lbu	a0,0(s6)
80002998:	08050063          	beqz	a0,80002a18 <printstr+0x138>
8000299c:	00805c63          	blez	s0,800029b4 <printstr+0xd4>
800029a0:	00178c13          	addi	s8,a5,1
800029a4:	fff40413          	addi	s0,s0,-1
800029a8:	0a0b9463          	bnez	s7,80002a50 <printstr+0x170>
800029ac:	00a78023          	sb	a0,0(a5)
800029b0:	000c0793          	mv	a5,s8
800029b4:	0004a883          	lw	a7,0(s1)
800029b8:	001b0b13          	addi	s6,s6,1
800029bc:	00188893          	addi	a7,a7,1
800029c0:	0114a023          	sw	a7,0(s1)
800029c4:	000b4503          	lbu	a0,0(s6)
800029c8:	fc051ae3          	bnez	a0,8000299c <printstr+0xbc>
800029cc:	020a9063          	bnez	s5,800029ec <printstr+0x10c>
800029d0:	0480006f          	j	80002a18 <printstr+0x138>
800029d4:	02000713          	li	a4,32
800029d8:	00e78023          	sb	a4,0(a5)
800029dc:	0004a883          	lw	a7,0(s1)
800029e0:	000a8793          	mv	a5,s5
800029e4:	00188893          	addi	a7,a7,1
800029e8:	0114a023          	sw	a7,0(s1)
800029ec:	41388733          	sub	a4,a7,s3
800029f0:	03275463          	bge	a4,s2,80002a18 <printstr+0x138>
800029f4:	fe8058e3          	blez	s0,800029e4 <printstr+0x104>
800029f8:	00178a93          	addi	s5,a5,1
800029fc:	fff40413          	addi	s0,s0,-1
80002a00:	fc0b8ae3          	beqz	s7,800029d4 <printstr+0xf4>
80002a04:	02000513          	li	a0,32
80002a08:	851ff0ef          	jal	ra,80002258 <putch>
80002a0c:	0004a883          	lw	a7,0(s1)
80002a10:	000a8793          	mv	a5,s5
80002a14:	fd1ff06f          	j	800029e4 <printstr+0x104>
80002a18:	02c12083          	lw	ra,44(sp)
80002a1c:	02812403          	lw	s0,40(sp)
80002a20:	02412483          	lw	s1,36(sp)
80002a24:	02012903          	lw	s2,32(sp)
80002a28:	01c12983          	lw	s3,28(sp)
80002a2c:	01412a83          	lw	s5,20(sp)
80002a30:	01012b03          	lw	s6,16(sp)
80002a34:	00c12b83          	lw	s7,12(sp)
80002a38:	00812c03          	lw	s8,8(sp)
80002a3c:	00412c83          	lw	s9,4(sp)
80002a40:	41478533          	sub	a0,a5,s4
80002a44:	01812a03          	lw	s4,24(sp)
80002a48:	03010113          	addi	sp,sp,48
80002a4c:	00008067          	ret
80002a50:	809ff0ef          	jal	ra,80002258 <putch>
80002a54:	000c0793          	mv	a5,s8
80002a58:	f5dff06f          	j	800029b4 <printstr+0xd4>
80002a5c:	000b4503          	lbu	a0,0(s6)
80002a60:	000a0793          	mv	a5,s4
80002a64:	f2051ce3          	bnez	a0,8000299c <printstr+0xbc>
80002a68:	0004a883          	lw	a7,0(s1)
80002a6c:	f81ff06f          	j	800029ec <printstr+0x10c>

80002a70 <printf>:
80002a70:	f9010113          	addi	sp,sp,-112
80002a74:	03412c23          	sw	s4,56(sp)
80002a78:	06f12223          	sw	a5,100(sp)
80002a7c:	04112623          	sw	ra,76(sp)
80002a80:	04812423          	sw	s0,72(sp)
80002a84:	04912223          	sw	s1,68(sp)
80002a88:	05212023          	sw	s2,64(sp)
80002a8c:	03312e23          	sw	s3,60(sp)
80002a90:	03512a23          	sw	s5,52(sp)
80002a94:	03612823          	sw	s6,48(sp)
80002a98:	03712623          	sw	s7,44(sp)
80002a9c:	03812423          	sw	s8,40(sp)
80002aa0:	03912223          	sw	s9,36(sp)
80002aa4:	03a12023          	sw	s10,32(sp)
80002aa8:	04b12a23          	sw	a1,84(sp)
80002aac:	04c12c23          	sw	a2,88(sp)
80002ab0:	04d12e23          	sw	a3,92(sp)
80002ab4:	06e12023          	sw	a4,96(sp)
80002ab8:	07012423          	sw	a6,104(sp)
80002abc:	07112623          	sw	a7,108(sp)
80002ac0:	00050a13          	mv	s4,a0
80002ac4:	00054503          	lbu	a0,0(a0)
80002ac8:	05410793          	addi	a5,sp,84
80002acc:	00012c23          	sw	zero,24(sp)
80002ad0:	00f12e23          	sw	a5,28(sp)
80002ad4:	2c050663          	beqz	a0,80002da0 <printf+0x330>
80002ad8:	10000937          	lui	s2,0x10000
80002adc:	ffe90993          	addi	s3,s2,-2 # ffffffe <_entry_offset+0xffffffe>
80002ae0:	00000a93          	li	s5,0
80002ae4:	00000c13          	li	s8,0
80002ae8:	02000d13          	li	s10,32
80002aec:	00000c93          	li	s9,0
80002af0:	00000b93          	li	s7,0
80002af4:	02500493          	li	s1,37
80002af8:	03900413          	li	s0,57
80002afc:	fff90913          	addi	s2,s2,-1
80002b00:	00001b17          	auipc	s6,0x1
80002b04:	844b0b13          	addi	s6,s6,-1980 # 80003344 <scipat+0x8c>
80002b08:	120c8863          	beqz	s9,80002c38 <printf+0x1c8>
80002b0c:	02a46863          	bltu	s0,a0,80002b3c <printf+0xcc>
80002b10:	02400793          	li	a5,36
80002b14:	1aa7f663          	bgeu	a5,a0,80002cc0 <printf+0x250>
80002b18:	fdb50793          	addi	a5,a0,-37
80002b1c:	0ff7f793          	zext.b	a5,a5
80002b20:	01400713          	li	a4,20
80002b24:	18f76e63          	bltu	a4,a5,80002cc0 <printf+0x250>
80002b28:	00279793          	slli	a5,a5,0x2
80002b2c:	016787b3          	add	a5,a5,s6
80002b30:	0007a783          	lw	a5,0(a5)
80002b34:	016787b3          	add	a5,a5,s6
80002b38:	00078067          	jr	a5
80002b3c:	07300793          	li	a5,115
80002b40:	1ef50a63          	beq	a0,a5,80002d34 <printf+0x2c4>
80002b44:	07800793          	li	a5,120
80002b48:	0af51263          	bne	a0,a5,80002bec <printf+0x17c>
80002b4c:	01c12783          	lw	a5,28(sp)
80002b50:	41790733          	sub	a4,s2,s7
80002b54:	01810693          	addi	a3,sp,24
80002b58:	0007a503          	lw	a0,0(a5)
80002b5c:	00478313          	addi	t1,a5,4
80002b60:	00d12223          	sw	a3,4(sp)
80002b64:	00e12023          	sw	a4,0(sp)
80002b68:	000d0893          	mv	a7,s10
80002b6c:	000a8813          	mv	a6,s5
80002b70:	000c0793          	mv	a5,s8
80002b74:	000b8593          	mv	a1,s7
80002b78:	00000713          	li	a4,0
80002b7c:	00100693          	li	a3,1
80002b80:	01000613          	li	a2,16
80002b84:	00612e23          	sw	t1,28(sp)
80002b88:	b41ff0ef          	jal	ra,800026c8 <int2str>
80002b8c:	00ab8bb3          	add	s7,s7,a0
80002b90:	000a0793          	mv	a5,s4
80002b94:	00000a93          	li	s5,0
80002b98:	00000c13          	li	s8,0
80002b9c:	02000d13          	li	s10,32
80002ba0:	00000c93          	li	s9,0
80002ba4:	0017c503          	lbu	a0,1(a5)
80002ba8:	00178a13          	addi	s4,a5,1
80002bac:	f4051ee3          	bnez	a0,80002b08 <printf+0x98>
80002bb0:	01812503          	lw	a0,24(sp)
80002bb4:	04c12083          	lw	ra,76(sp)
80002bb8:	04812403          	lw	s0,72(sp)
80002bbc:	04412483          	lw	s1,68(sp)
80002bc0:	04012903          	lw	s2,64(sp)
80002bc4:	03c12983          	lw	s3,60(sp)
80002bc8:	03812a03          	lw	s4,56(sp)
80002bcc:	03412a83          	lw	s5,52(sp)
80002bd0:	03012b03          	lw	s6,48(sp)
80002bd4:	02c12b83          	lw	s7,44(sp)
80002bd8:	02812c03          	lw	s8,40(sp)
80002bdc:	02412c83          	lw	s9,36(sp)
80002be0:	02012d03          	lw	s10,32(sp)
80002be4:	07010113          	addi	sp,sp,112
80002be8:	00008067          	ret
80002bec:	06400793          	li	a5,100
80002bf0:	0cf51863          	bne	a0,a5,80002cc0 <printf+0x250>
80002bf4:	01c12783          	lw	a5,28(sp)
80002bf8:	41790733          	sub	a4,s2,s7
80002bfc:	01810693          	addi	a3,sp,24
80002c00:	0007a503          	lw	a0,0(a5)
80002c04:	00478313          	addi	t1,a5,4
80002c08:	00d12223          	sw	a3,4(sp)
80002c0c:	00e12023          	sw	a4,0(sp)
80002c10:	000d0893          	mv	a7,s10
80002c14:	000a8813          	mv	a6,s5
80002c18:	000c0793          	mv	a5,s8
80002c1c:	000b8593          	mv	a1,s7
80002c20:	00100713          	li	a4,1
80002c24:	00100693          	li	a3,1
80002c28:	00a00613          	li	a2,10
80002c2c:	00612e23          	sw	t1,28(sp)
80002c30:	a99ff0ef          	jal	ra,800026c8 <int2str>
80002c34:	f59ff06f          	j	80002b8c <printf+0x11c>
80002c38:	00950e63          	beq	a0,s1,80002c54 <printf+0x1e4>
80002c3c:	0379d263          	bge	s3,s7,80002c60 <printf+0x1f0>
80002c40:	01812703          	lw	a4,24(sp)
80002c44:	000a0793          	mv	a5,s4
80002c48:	00170713          	addi	a4,a4,1
80002c4c:	00e12c23          	sw	a4,24(sp)
80002c50:	f55ff06f          	j	80002ba4 <printf+0x134>
80002c54:	000a0793          	mv	a5,s4
80002c58:	00100c93          	li	s9,1
80002c5c:	f49ff06f          	j	80002ba4 <printf+0x134>
80002c60:	df8ff0ef          	jal	ra,80002258 <putch>
80002c64:	001b8b93          	addi	s7,s7,1
80002c68:	fd9ff06f          	j	80002c40 <printf+0x1d0>
80002c6c:	000a4683          	lbu	a3,0(s4)
80002c70:	00900793          	li	a5,9
80002c74:	fd068713          	addi	a4,a3,-48
80002c78:	0ff77693          	zext.b	a3,a4
80002c7c:	12d7e663          	bltu	a5,a3,80002da8 <printf+0x338>
80002c80:	000a0793          	mv	a5,s4
80002c84:	00000a93          	li	s5,0
80002c88:	00900593          	li	a1,9
80002c8c:	0017c683          	lbu	a3,1(a5)
80002c90:	002a9613          	slli	a2,s5,0x2
80002c94:	01560633          	add	a2,a2,s5
80002c98:	00161613          	slli	a2,a2,0x1
80002c9c:	00e60ab3          	add	s5,a2,a4
80002ca0:	fd068713          	addi	a4,a3,-48
80002ca4:	0ff77693          	zext.b	a3,a4
80002ca8:	00178793          	addi	a5,a5,1
80002cac:	fed5f0e3          	bgeu	a1,a3,80002c8c <printf+0x21c>
80002cb0:	414787b3          	sub	a5,a5,s4
80002cb4:	fff78793          	addi	a5,a5,-1
80002cb8:	00fa07b3          	add	a5,s4,a5
80002cbc:	ee9ff06f          	j	80002ba4 <printf+0x134>
80002cc0:	0d79d063          	bge	s3,s7,80002d80 <printf+0x310>
80002cc4:	01812703          	lw	a4,24(sp)
80002cc8:	000a0793          	mv	a5,s4
80002ccc:	00000a93          	li	s5,0
80002cd0:	00270713          	addi	a4,a4,2
80002cd4:	00e12c23          	sw	a4,24(sp)
80002cd8:	00000c13          	li	s8,0
80002cdc:	02000d13          	li	s10,32
80002ce0:	00000c93          	li	s9,0
80002ce4:	ec1ff06f          	j	80002ba4 <printf+0x134>
80002ce8:	01c12703          	lw	a4,28(sp)
80002cec:	000a0793          	mv	a5,s4
80002cf0:	00470693          	addi	a3,a4,4
80002cf4:	00072a83          	lw	s5,0(a4)
80002cf8:	00d12e23          	sw	a3,28(sp)
80002cfc:	ea9ff06f          	j	80002ba4 <printf+0x134>
80002d00:	0779d863          	bge	s3,s7,80002d70 <printf+0x300>
80002d04:	01812703          	lw	a4,24(sp)
80002d08:	000a0793          	mv	a5,s4
80002d0c:	00000a93          	li	s5,0
80002d10:	00170713          	addi	a4,a4,1
80002d14:	00e12c23          	sw	a4,24(sp)
80002d18:	00000c13          	li	s8,0
80002d1c:	02000d13          	li	s10,32
80002d20:	00000c93          	li	s9,0
80002d24:	e81ff06f          	j	80002ba4 <printf+0x134>
80002d28:	000a0793          	mv	a5,s4
80002d2c:	00100c13          	li	s8,1
80002d30:	e75ff06f          	j	80002ba4 <printf+0x134>
80002d34:	01c12683          	lw	a3,28(sp)
80002d38:	417907b3          	sub	a5,s2,s7
80002d3c:	000a8713          	mv	a4,s5
80002d40:	0006a503          	lw	a0,0(a3)
80002d44:	00468893          	addi	a7,a3,4
80002d48:	000b8593          	mv	a1,s7
80002d4c:	000c0693          	mv	a3,s8
80002d50:	01810813          	addi	a6,sp,24
80002d54:	00100613          	li	a2,1
80002d58:	01112e23          	sw	a7,28(sp)
80002d5c:	b85ff0ef          	jal	ra,800028e0 <printstr>
80002d60:	e2dff06f          	j	80002b8c <printf+0x11c>
80002d64:	000a0793          	mv	a5,s4
80002d68:	00050d13          	mv	s10,a0
80002d6c:	e39ff06f          	j	80002ba4 <printf+0x134>
80002d70:	02500513          	li	a0,37
80002d74:	ce4ff0ef          	jal	ra,80002258 <putch>
80002d78:	001b8b93          	addi	s7,s7,1
80002d7c:	f89ff06f          	j	80002d04 <printf+0x294>
80002d80:	02500513          	li	a0,37
80002d84:	cd4ff0ef          	jal	ra,80002258 <putch>
80002d88:	001b8793          	addi	a5,s7,1
80002d8c:	02f9c663          	blt	s3,a5,80002db8 <printf+0x348>
80002d90:	000a4503          	lbu	a0,0(s4)
80002d94:	002b8b93          	addi	s7,s7,2
80002d98:	cc0ff0ef          	jal	ra,80002258 <putch>
80002d9c:	f29ff06f          	j	80002cc4 <printf+0x254>
80002da0:	00000513          	li	a0,0
80002da4:	e11ff06f          	j	80002bb4 <printf+0x144>
80002da8:	fff00793          	li	a5,-1
80002dac:	00000a93          	li	s5,0
80002db0:	00fa07b3          	add	a5,s4,a5
80002db4:	df1ff06f          	j	80002ba4 <printf+0x134>
80002db8:	00078b93          	mv	s7,a5
80002dbc:	f09ff06f          	j	80002cc4 <printf+0x254>

80002dc0 <strlen>:
80002dc0:	00054783          	lbu	a5,0(a0)
80002dc4:	00050713          	mv	a4,a0
80002dc8:	00000513          	li	a0,0
80002dcc:	00078c63          	beqz	a5,80002de4 <strlen+0x24>
80002dd0:	00150513          	addi	a0,a0,1
80002dd4:	00a707b3          	add	a5,a4,a0
80002dd8:	0007c783          	lbu	a5,0(a5)
80002ddc:	fe079ae3          	bnez	a5,80002dd0 <strlen+0x10>
80002de0:	00008067          	ret
80002de4:	00008067          	ret
