
/home/wzr/NJU/DigitalDesign-AM/CS-AM/am-kernels/tests/am-tests/build/amtest-riscv32-nemu.elf:     file format elf32-littleriscv


Disassembly of section .text:

00000000 <_start>:
       0:	00000413          	li	s0,0
       4:	0000e117          	auipc	sp,0xe
       8:	ffc10113          	addi	sp,sp,-4 # e000 <_end>
       c:	371000ef          	jal	ra,b7c <_trm_init>

00000010 <hello>:
      10:	ff010113          	addi	sp,sp,-16
      14:	00912223          	sw	s1,4(sp)
      18:	00112623          	sw	ra,12(sp)
      1c:	00812423          	sw	s0,8(sp)
      20:	00a00493          	li	s1,10
      24:	00002417          	auipc	s0,0x2
      28:	9f040413          	addi	s0,s0,-1552 # 1a14 <_etext>
      2c:	04800513          	li	a0,72
      30:	00140413          	addi	s0,s0,1
      34:	29d000ef          	jal	ra,ad0 <putch>
      38:	00044503          	lbu	a0,0(s0)
      3c:	fe051ae3          	bnez	a0,30 <hello+0x20>
      40:	fff48493          	addi	s1,s1,-1
      44:	fe0490e3          	bnez	s1,24 <hello+0x14>
      48:	00c12083          	lw	ra,12(sp)
      4c:	00812403          	lw	s0,8(sp)
      50:	00412483          	lw	s1,4(sp)
      54:	01010113          	addi	sp,sp,16
      58:	00008067          	ret

0000005c <coltxt>:
      5c:	00002797          	auipc	a5,0x2
      60:	9d478793          	addi	a5,a5,-1580 # 1a30 <_etext+0x1c>
      64:	0007a803          	lw	a6,0(a5)
      68:	0047a603          	lw	a2,4(a5)
      6c:	0087a683          	lw	a3,8(a5)
      70:	00c7a703          	lw	a4,12(a5)
      74:	0107a783          	lw	a5,16(a5)
      78:	fc010113          	addi	sp,sp,-64
      7c:	02912a23          	sw	s1,52(sp)
      80:	02f12623          	sw	a5,44(sp)
      84:	00002497          	auipc	s1,0x2
      88:	ef148493          	addi	s1,s1,-271 # 1f75 <serialcol>
      8c:	06700793          	li	a5,103
      90:	02812c23          	sw	s0,56(sp)
      94:	00c10593          	addi	a1,sp,12
      98:	01300413          	li	s0,19
      9c:	00f48023          	sb	a5,0(s1)
      a0:	01100513          	li	a0,17
      a4:	01c10793          	addi	a5,sp,28
      a8:	02112e23          	sw	ra,60(sp)
      ac:	01012e23          	sw	a6,28(sp)
      b0:	02c12023          	sw	a2,32(sp)
      b4:	02d12223          	sw	a3,36(sp)
      b8:	02e12423          	sw	a4,40(sp)
      bc:	00f12a23          	sw	a5,20(sp)
      c0:	00812c23          	sw	s0,24(sp)
      c4:	00012623          	sw	zero,12(sp)
      c8:	00012823          	sw	zero,16(sp)
      cc:	309000ef          	jal	ra,bd4 <ioe_write>
      d0:	04300793          	li	a5,67
      d4:	00f48023          	sb	a5,0(s1)
      d8:	00100793          	li	a5,1
      dc:	00c10593          	addi	a1,sp,12
      e0:	00f12823          	sw	a5,16(sp)
      e4:	01100513          	li	a0,17
      e8:	01c10793          	addi	a5,sp,28
      ec:	00f12a23          	sw	a5,20(sp)
      f0:	00812c23          	sw	s0,24(sp)
      f4:	00012623          	sw	zero,12(sp)
      f8:	2dd000ef          	jal	ra,bd4 <ioe_write>
      fc:	05000793          	li	a5,80
     100:	00f48023          	sb	a5,0(s1)
     104:	00200793          	li	a5,2
     108:	00c10593          	addi	a1,sp,12
     10c:	00f12823          	sw	a5,16(sp)
     110:	01100513          	li	a0,17
     114:	01c10793          	addi	a5,sp,28
     118:	00f12a23          	sw	a5,20(sp)
     11c:	00812c23          	sw	s0,24(sp)
     120:	00012623          	sw	zero,12(sp)
     124:	2b1000ef          	jal	ra,bd4 <ioe_write>
     128:	02700793          	li	a5,39
     12c:	00f48023          	sb	a5,0(s1)
     130:	00300793          	li	a5,3
     134:	00c10593          	addi	a1,sp,12
     138:	00f12823          	sw	a5,16(sp)
     13c:	01100513          	li	a0,17
     140:	01c10793          	addi	a5,sp,28
     144:	00f12a23          	sw	a5,20(sp)
     148:	00812c23          	sw	s0,24(sp)
     14c:	00012623          	sw	zero,12(sp)
     150:	285000ef          	jal	ra,bd4 <ioe_write>
     154:	00400793          	li	a5,4
     158:	00f12823          	sw	a5,16(sp)
     15c:	00c10593          	addi	a1,sp,12
     160:	01c10793          	addi	a5,sp,28
     164:	01100513          	li	a0,17
     168:	00848023          	sb	s0,0(s1)
     16c:	00812c23          	sw	s0,24(sp)
     170:	00012623          	sw	zero,12(sp)
     174:	00f12a23          	sw	a5,20(sp)
     178:	25d000ef          	jal	ra,bd4 <ioe_write>
     17c:	03c12083          	lw	ra,60(sp)
     180:	03812403          	lw	s0,56(sp)
     184:	03412483          	lw	s1,52(sp)
     188:	04010113          	addi	sp,sp,64
     18c:	00008067          	ret

00000190 <rtc_test>:
     190:	fb010113          	addi	sp,sp,-80
     194:	05212023          	sw	s2,64(sp)
     198:	000f4937          	lui	s2,0xf4
     19c:	04812423          	sw	s0,72(sp)
     1a0:	04912223          	sw	s1,68(sp)
     1a4:	03312e23          	sw	s3,60(sp)
     1a8:	03412c23          	sw	s4,56(sp)
     1ac:	03512a23          	sw	s5,52(sp)
     1b0:	03612823          	sw	s6,48(sp)
     1b4:	03712623          	sw	s7,44(sp)
     1b8:	04112623          	sw	ra,76(sp)
     1bc:	00100493          	li	s1,1
     1c0:	00000413          	li	s0,0
     1c4:	24090913          	addi	s2,s2,576 # f4240 <_end+0xe6240>
     1c8:	00000993          	li	s3,0
     1cc:	00002b17          	auipc	s6,0x2
     1d0:	878b0b13          	addi	s6,s6,-1928 # 1a44 <_etext+0x30>
     1d4:	00100a93          	li	s5,1
     1d8:	00002b97          	auipc	s7,0x2
     1dc:	89cb8b93          	addi	s7,s7,-1892 # 1a74 <_etext+0x60>
     1e0:	00002a17          	auipc	s4,0x2
     1e4:	884a0a13          	addi	s4,s4,-1916 # 1a64 <_etext+0x50>
     1e8:	00810593          	addi	a1,sp,8
     1ec:	00600513          	li	a0,6
     1f0:	1c9000ef          	jal	ra,bb8 <ioe_read>
     1f4:	00812503          	lw	a0,8(sp)
     1f8:	00c12583          	lw	a1,12(sp)
     1fc:	00090613          	mv	a2,s2
     200:	00098693          	mv	a3,s3
     204:	72d000ef          	jal	ra,1130 <__udivdi3>
     208:	fe85e0e3          	bltu	a1,s0,1e8 <rtc_test+0x58>
     20c:	00b41463          	bne	s0,a1,214 <rtc_test+0x84>
     210:	fc956ce3          	bltu	a0,s1,1e8 <rtc_test+0x58>
     214:	00810593          	addi	a1,sp,8
     218:	00500513          	li	a0,5
     21c:	19d000ef          	jal	ra,bb8 <ioe_read>
     220:	00812583          	lw	a1,8(sp)
     224:	01c12803          	lw	a6,28(sp)
     228:	01812783          	lw	a5,24(sp)
     22c:	01412703          	lw	a4,20(sp)
     230:	01012683          	lw	a3,16(sp)
     234:	00c12603          	lw	a2,12(sp)
     238:	000b0513          	mv	a0,s6
     23c:	3c0010ef          	jal	ra,15fc <printf>
     240:	00100593          	li	a1,1
     244:	000a0513          	mv	a0,s4
     248:	01548663          	beq	s1,s5,254 <rtc_test+0xc4>
     24c:	00048593          	mv	a1,s1
     250:	000b8513          	mv	a0,s7
     254:	3a8010ef          	jal	ra,15fc <printf>
     258:	00148793          	addi	a5,s1,1
     25c:	0097b4b3          	sltu	s1,a5,s1
     260:	00848433          	add	s0,s1,s0
     264:	00078493          	mv	s1,a5
     268:	f81ff06f          	j	1e8 <rtc_test+0x58>

0000026c <board_io_port>:
     26c:	fc010113          	addi	sp,sp,-64
     270:	03412423          	sw	s4,40(sp)
     274:	00002517          	auipc	a0,0x2
     278:	81050513          	addi	a0,a0,-2032 # 1a84 <_etext+0x70>
     27c:	000f4a37          	lui	s4,0xf4
     280:	02812c23          	sw	s0,56(sp)
     284:	02912a23          	sw	s1,52(sp)
     288:	03212823          	sw	s2,48(sp)
     28c:	03312623          	sw	s3,44(sp)
     290:	03512223          	sw	s5,36(sp)
     294:	03612023          	sw	s6,32(sp)
     298:	01712e23          	sw	s7,28(sp)
     29c:	01812c23          	sw	s8,24(sp)
     2a0:	01912a23          	sw	s9,20(sp)
     2a4:	02112e23          	sw	ra,60(sp)
     2a8:	01a12823          	sw	s10,16(sp)
     2ac:	00000413          	li	s0,0
     2b0:	34c010ef          	jal	ra,15fc <printf>
     2b4:	00000c93          	li	s9,0
     2b8:	00f00913          	li	s2,15
     2bc:	00002497          	auipc	s1,0x2
     2c0:	cb048493          	addi	s1,s1,-848 # 1f6c <njuid>
     2c4:	00100993          	li	s3,1
     2c8:	00200c13          	li	s8,2
     2cc:	00300b93          	li	s7,3
     2d0:	00400b13          	li	s6,4
     2d4:	00600a93          	li	s5,6
     2d8:	23fa0a13          	addi	s4,s4,575 # f423f <_end+0xe623f>
     2dc:	00810593          	addi	a1,sp,8
     2e0:	00e00513          	li	a0,14
     2e4:	01912423          	sw	s9,8(sp)
     2e8:	01310623          	sb	s3,12(sp)
     2ec:	0e9000ef          	jal	ra,bd4 <ioe_write>
     2f0:	00810593          	addi	a1,sp,8
     2f4:	00e00513          	li	a0,14
     2f8:	01212423          	sw	s2,8(sp)
     2fc:	00010623          	sb	zero,12(sp)
     300:	0d5000ef          	jal	ra,bd4 <ioe_write>
     304:	008487b3          	add	a5,s1,s0
     308:	0007c783          	lbu	a5,0(a5)
     30c:	00810593          	addi	a1,sp,8
     310:	00f00513          	li	a0,15
     314:	00f10623          	sb	a5,12(sp)
     318:	00140913          	addi	s2,s0,1
     31c:	00012423          	sw	zero,8(sp)
     320:	0b5000ef          	jal	ra,bd4 <ioe_write>
     324:	00797793          	andi	a5,s2,7
     328:	00f487b3          	add	a5,s1,a5
     32c:	0007c783          	lbu	a5,0(a5)
     330:	00810593          	addi	a1,sp,8
     334:	00f00513          	li	a0,15
     338:	00f10623          	sb	a5,12(sp)
     33c:	01312423          	sw	s3,8(sp)
     340:	095000ef          	jal	ra,bd4 <ioe_write>
     344:	00240793          	addi	a5,s0,2
     348:	0077f793          	andi	a5,a5,7
     34c:	00f487b3          	add	a5,s1,a5
     350:	0007c783          	lbu	a5,0(a5)
     354:	00810593          	addi	a1,sp,8
     358:	00f00513          	li	a0,15
     35c:	00f10623          	sb	a5,12(sp)
     360:	01812423          	sw	s8,8(sp)
     364:	071000ef          	jal	ra,bd4 <ioe_write>
     368:	00340793          	addi	a5,s0,3
     36c:	0077f793          	andi	a5,a5,7
     370:	00f487b3          	add	a5,s1,a5
     374:	0007c783          	lbu	a5,0(a5)
     378:	00810593          	addi	a1,sp,8
     37c:	00f00513          	li	a0,15
     380:	00f10623          	sb	a5,12(sp)
     384:	01712423          	sw	s7,8(sp)
     388:	04d000ef          	jal	ra,bd4 <ioe_write>
     38c:	00440793          	addi	a5,s0,4
     390:	0077f793          	andi	a5,a5,7
     394:	00f487b3          	add	a5,s1,a5
     398:	0007c783          	lbu	a5,0(a5)
     39c:	00810593          	addi	a1,sp,8
     3a0:	00f00513          	li	a0,15
     3a4:	00f10623          	sb	a5,12(sp)
     3a8:	01612423          	sw	s6,8(sp)
     3ac:	029000ef          	jal	ra,bd4 <ioe_write>
     3b0:	00540793          	addi	a5,s0,5
     3b4:	0077f793          	andi	a5,a5,7
     3b8:	00f487b3          	add	a5,s1,a5
     3bc:	0007c783          	lbu	a5,0(a5)
     3c0:	00500713          	li	a4,5
     3c4:	00810593          	addi	a1,sp,8
     3c8:	00f00513          	li	a0,15
     3cc:	00e12423          	sw	a4,8(sp)
     3d0:	00f10623          	sb	a5,12(sp)
     3d4:	001000ef          	jal	ra,bd4 <ioe_write>
     3d8:	00640793          	addi	a5,s0,6
     3dc:	0077f793          	andi	a5,a5,7
     3e0:	00f487b3          	add	a5,s1,a5
     3e4:	0007c783          	lbu	a5,0(a5)
     3e8:	00810593          	addi	a1,sp,8
     3ec:	00f00513          	li	a0,15
     3f0:	00f10623          	sb	a5,12(sp)
     3f4:	01512423          	sw	s5,8(sp)
     3f8:	7dc000ef          	jal	ra,bd4 <ioe_write>
     3fc:	00740793          	addi	a5,s0,7
     400:	0077f793          	andi	a5,a5,7
     404:	00f487b3          	add	a5,s1,a5
     408:	0007c783          	lbu	a5,0(a5)
     40c:	00700713          	li	a4,7
     410:	00810593          	addi	a1,sp,8
     414:	00f00513          	li	a0,15
     418:	00f10623          	sb	a5,12(sp)
     41c:	00e12423          	sw	a4,8(sp)
     420:	7b4000ef          	jal	ra,bd4 <ioe_write>
     424:	00f00793          	li	a5,15
     428:	00000d13          	li	s10,0
     42c:	00fc8463          	beq	s9,a5,434 <board_io_port+0x1c8>
     430:	001c8d13          	addi	s10,s9,1
     434:	00800793          	li	a5,8
     438:	02f40863          	beq	s0,a5,468 <board_io_port+0x1fc>
     43c:	00090413          	mv	s0,s2
     440:	000c8913          	mv	s2,s9
     444:	00810593          	addi	a1,sp,8
     448:	00600513          	li	a0,6
     44c:	76c000ef          	jal	ra,bb8 <ioe_read>
     450:	00c12783          	lw	a5,12(sp)
     454:	00812703          	lw	a4,8(sp)
     458:	00079463          	bnez	a5,460 <board_io_port+0x1f4>
     45c:	feea74e3          	bgeu	s4,a4,444 <board_io_port+0x1d8>
     460:	000d0c93          	mv	s9,s10
     464:	e79ff06f          	j	2dc <board_io_port+0x70>
     468:	00000413          	li	s0,0
     46c:	fd5ff06f          	j	440 <board_io_port+0x1d4>

00000470 <redraw>:
     470:	fb010113          	addi	sp,sp,-80
     474:	04812423          	sw	s0,72(sp)
     478:	03312e23          	sw	s3,60(sp)
     47c:	03412c23          	sw	s4,56(sp)
     480:	03512a23          	sw	s5,52(sp)
     484:	03612823          	sw	s6,48(sp)
     488:	03712623          	sw	s7,44(sp)
     48c:	03812423          	sw	s8,40(sp)
     490:	03912223          	sw	s9,36(sp)
     494:	04112623          	sw	ra,76(sp)
     498:	04912223          	sw	s1,68(sp)
     49c:	05212023          	sw	s2,64(sp)
     4a0:	00002c17          	auipc	s8,0x2
     4a4:	cd8c0c13          	addi	s8,s8,-808 # 2178 <canvas>
     4a8:	00003c97          	auipc	s9,0x3
     4ac:	cd0c8c93          	addi	s9,s9,-816 # 3178 <color_buf>
     4b0:	00000993          	li	s3,0
     4b4:	00003b97          	auipc	s7,0x3
     4b8:	cc4b8b93          	addi	s7,s7,-828 # 3178 <color_buf>
     4bc:	00003417          	auipc	s0,0x3
     4c0:	16c40413          	addi	s0,s0,364 # 3628 <color_buf+0x4b0>
     4c4:	01400b13          	li	s6,20
     4c8:	00f00a93          	li	s5,15
     4cc:	28000a13          	li	s4,640
     4d0:	000c0913          	mv	s2,s8
     4d4:	00000493          	li	s1,0
     4d8:	00092703          	lw	a4,0(s2)
     4dc:	00003797          	auipc	a5,0x3
     4e0:	c9c78793          	addi	a5,a5,-868 # 3178 <color_buf>
     4e4:	00e7a023          	sw	a4,0(a5)
     4e8:	00478793          	addi	a5,a5,4
     4ec:	fe879ce3          	bne	a5,s0,4e4 <redraw+0x74>
     4f0:	00912423          	sw	s1,8(sp)
     4f4:	00810593          	addi	a1,sp,8
     4f8:	01448493          	addi	s1,s1,20
     4fc:	00b00513          	li	a0,11
     500:	01312623          	sw	s3,12(sp)
     504:	01712823          	sw	s7,16(sp)
     508:	01612a23          	sw	s6,20(sp)
     50c:	01512c23          	sw	s5,24(sp)
     510:	00010e23          	sb	zero,28(sp)
     514:	00490913          	addi	s2,s2,4
     518:	6bc000ef          	jal	ra,bd4 <ioe_write>
     51c:	fb449ee3          	bne	s1,s4,4d8 <redraw+0x68>
     520:	080c0c13          	addi	s8,s8,128
     524:	00f98993          	addi	s3,s3,15
     528:	fb9c14e3          	bne	s8,s9,4d0 <redraw+0x60>
     52c:	00810593          	addi	a1,sp,8
     530:	00100793          	li	a5,1
     534:	00b00513          	li	a0,11
     538:	00012423          	sw	zero,8(sp)
     53c:	00012623          	sw	zero,12(sp)
     540:	00012823          	sw	zero,16(sp)
     544:	00012a23          	sw	zero,20(sp)
     548:	00012c23          	sw	zero,24(sp)
     54c:	00f10e23          	sb	a5,28(sp)
     550:	684000ef          	jal	ra,bd4 <ioe_write>
     554:	04c12083          	lw	ra,76(sp)
     558:	04812403          	lw	s0,72(sp)
     55c:	04412483          	lw	s1,68(sp)
     560:	04012903          	lw	s2,64(sp)
     564:	03c12983          	lw	s3,60(sp)
     568:	03812a03          	lw	s4,56(sp)
     56c:	03412a83          	lw	s5,52(sp)
     570:	03012b03          	lw	s6,48(sp)
     574:	02c12b83          	lw	s7,44(sp)
     578:	02812c03          	lw	s8,40(sp)
     57c:	02412c83          	lw	s9,36(sp)
     580:	05010113          	addi	sp,sp,80
     584:	00008067          	ret

00000588 <update>:
     588:	00005797          	auipc	a5,0x5
     58c:	5f078793          	addi	a5,a5,1520 # 5b78 <tsc.2>
     590:	0007a383          	lw	t2,0(a5)
     594:	ff010113          	addi	sp,sp,-16
     598:	00812623          	sw	s0,12(sp)
     59c:	00912423          	sw	s1,8(sp)
     5a0:	01212223          	sw	s2,4(sp)
     5a4:	01312023          	sw	s3,0(sp)
     5a8:	00138393          	addi	t2,t2,1
     5ac:	00004717          	auipc	a4,0x4
     5b0:	c4c70713          	addi	a4,a4,-948 # 41f8 <used+0x80>
     5b4:	00005697          	auipc	a3,0x5
     5b8:	c4468693          	addi	a3,a3,-956 # 51f8 <space+0x80>
     5bc:	0077a023          	sw	t2,0(a5)
     5c0:	f8070793          	addi	a5,a4,-128
     5c4:	0007a023          	sw	zero,0(a5)
     5c8:	00478793          	addi	a5,a5,4
     5cc:	fef71ce3          	bne	a4,a5,5c4 <update+0x3c>
     5d0:	08070713          	addi	a4,a4,128
     5d4:	fed716e3          	bne	a4,a3,5c0 <update+0x38>
     5d8:	0ff3f693          	zext.b	a3,t2
     5dc:	00169793          	slli	a5,a3,0x1
     5e0:	00f687b3          	add	a5,a3,a5
     5e4:	00369713          	slli	a4,a3,0x3
     5e8:	00179793          	slli	a5,a5,0x1
     5ec:	40d70733          	sub	a4,a4,a3
     5f0:	0ff7f793          	zext.b	a5,a5
     5f4:	0ff77713          	zext.b	a4,a4
     5f8:	00871713          	slli	a4,a4,0x8
     5fc:	01079793          	slli	a5,a5,0x10
     600:	00e7e7b3          	or	a5,a5,a4
     604:	0ff3f713          	zext.b	a4,t2
     608:	00e7e7b3          	or	a5,a5,a4
     60c:	00002417          	auipc	s0,0x2
     610:	b6c40413          	addi	s0,s0,-1172 # 2178 <canvas>
     614:	00004e97          	auipc	t4,0x4
     618:	b64e8e93          	addi	t4,t4,-1180 # 4178 <used>
     61c:	00f42023          	sw	a5,0(s0)
     620:	00100793          	li	a5,1
     624:	00fea023          	sw	a5,0(t4)
     628:	00100713          	li	a4,1
     62c:	00000793          	li	a5,0
     630:	00100f93          	li	t6,1
     634:	00000593          	li	a1,0
     638:	00000913          	li	s2,0
     63c:	00000e13          	li	t3,0
     640:	01f00f13          	li	t5,31
     644:	00001317          	auipc	t1,0x1
     648:	46c30313          	addi	t1,t1,1132 # 1ab0 <dx.1>
     64c:	00001897          	auipc	a7,0x1
     650:	47488893          	addi	a7,a7,1140 # 1ac0 <dy.0>
     654:	00100493          	li	s1,1
     658:	40000293          	li	t0,1024
     65c:	00400693          	li	a3,4
     660:	00fe0633          	add	a2,t3,a5
     664:	00e90733          	add	a4,s2,a4
     668:	00561793          	slli	a5,a2,0x5
     66c:	00e787b3          	add	a5,a5,a4
     670:	00279793          	slli	a5,a5,0x2
     674:	00e66533          	or	a0,a2,a4
     678:	00fe89b3          	add	s3,t4,a5
     67c:	00158813          	addi	a6,a1,1
     680:	fff68693          	addi	a3,a3,-1
     684:	00af6663          	bltu	t5,a0,690 <update+0x108>
     688:	0009a503          	lw	a0,0(s3)
     68c:	02050263          	beqz	a0,6b0 <update+0x128>
     690:	00387593          	andi	a1,a6,3
     694:	00259793          	slli	a5,a1,0x2
     698:	00f30633          	add	a2,t1,a5
     69c:	00f88733          	add	a4,a7,a5
     6a0:	06068063          	beqz	a3,700 <update+0x178>
     6a4:	00062783          	lw	a5,0(a2)
     6a8:	00072703          	lw	a4,0(a4)
     6ac:	fb5ff06f          	j	660 <update+0xd8>
     6b0:	401fd813          	srai	a6,t6,0x1
     6b4:	00780833          	add	a6,a6,t2
     6b8:	0ff87e13          	zext.b	t3,a6
     6bc:	001e1513          	slli	a0,t3,0x1
     6c0:	00ae0533          	add	a0,t3,a0
     6c4:	003e1693          	slli	a3,t3,0x3
     6c8:	41c686b3          	sub	a3,a3,t3
     6cc:	00151513          	slli	a0,a0,0x1
     6d0:	0ff57513          	zext.b	a0,a0
     6d4:	0ff6f693          	zext.b	a3,a3
     6d8:	00869693          	slli	a3,a3,0x8
     6dc:	01051513          	slli	a0,a0,0x10
     6e0:	00d56533          	or	a0,a0,a3
     6e4:	0ff87813          	zext.b	a6,a6
     6e8:	00f406b3          	add	a3,s0,a5
     6ec:	010567b3          	or	a5,a0,a6
     6f0:	0099a023          	sw	s1,0(s3)
     6f4:	00f6a023          	sw	a5,0(a3)
     6f8:	00070913          	mv	s2,a4
     6fc:	00060e13          	mv	t3,a2
     700:	001f8f93          	addi	t6,t6,1
     704:	005f8e63          	beq	t6,t0,720 <update+0x198>
     708:	00259793          	slli	a5,a1,0x2
     70c:	00f88733          	add	a4,a7,a5
     710:	00f306b3          	add	a3,t1,a5
     714:	0006a783          	lw	a5,0(a3)
     718:	00072703          	lw	a4,0(a4)
     71c:	f41ff06f          	j	65c <update+0xd4>
     720:	00c12403          	lw	s0,12(sp)
     724:	00812483          	lw	s1,8(sp)
     728:	00412903          	lw	s2,4(sp)
     72c:	00012983          	lw	s3,0(sp)
     730:	01010113          	addi	sp,sp,16
     734:	00008067          	ret

00000738 <video_test>:
     738:	fd010113          	addi	sp,sp,-48
     73c:	02912223          	sw	s1,36(sp)
     740:	03212023          	sw	s2,32(sp)
     744:	01312e23          	sw	s3,28(sp)
     748:	01412c23          	sw	s4,24(sp)
     74c:	01512a23          	sw	s5,20(sp)
     750:	01612823          	sw	s6,16(sp)
     754:	02112623          	sw	ra,44(sp)
     758:	02812423          	sw	s0,40(sp)
     75c:	00000993          	li	s3,0
     760:	00000913          	li	s2,0
     764:	00000493          	li	s1,0
     768:	02100a93          	li	s5,33
     76c:	3e800a13          	li	s4,1000
     770:	00001b17          	auipc	s6,0x1
     774:	330b0b13          	addi	s6,s6,816 # 1aa0 <_etext+0x8c>
     778:	00810593          	addi	a1,sp,8
     77c:	00600513          	li	a0,6
     780:	438000ef          	jal	ra,bb8 <ioe_read>
     784:	00812503          	lw	a0,8(sp)
     788:	00c12583          	lw	a1,12(sp)
     78c:	3e800613          	li	a2,1000
     790:	00000693          	li	a3,0
     794:	19d000ef          	jal	ra,1130 <__udivdi3>
     798:	409507b3          	sub	a5,a0,s1
     79c:	00050413          	mv	s0,a0
     7a0:	02fae463          	bltu	s5,a5,7c8 <video_test+0x90>
     7a4:	412407b3          	sub	a5,s0,s2
     7a8:	fcfa78e3          	bgeu	s4,a5,778 <video_test+0x40>
     7ac:	00098613          	mv	a2,s3
     7b0:	00040593          	mv	a1,s0
     7b4:	000b0513          	mv	a0,s6
     7b8:	645000ef          	jal	ra,15fc <printf>
     7bc:	00040913          	mv	s2,s0
     7c0:	00000993          	li	s3,0
     7c4:	fb5ff06f          	j	778 <video_test+0x40>
     7c8:	dc1ff0ef          	jal	ra,588 <update>
     7cc:	00198993          	addi	s3,s3,1
     7d0:	ca1ff0ef          	jal	ra,470 <redraw>
     7d4:	00040493          	mv	s1,s0
     7d8:	fcdff06f          	j	7a4 <video_test+0x6c>

000007dc <keyboard_test>:
     7dc:	fd010113          	addi	sp,sp,-48
     7e0:	00001517          	auipc	a0,0x1
     7e4:	2f050513          	addi	a0,a0,752 # 1ad0 <dy.0+0x10>
     7e8:	02112623          	sw	ra,44(sp)
     7ec:	02812423          	sw	s0,40(sp)
     7f0:	02912223          	sw	s1,36(sp)
     7f4:	03212023          	sw	s2,32(sp)
     7f8:	01312e23          	sw	s3,28(sp)
     7fc:	01412c23          	sw	s4,24(sp)
     800:	5fd000ef          	jal	ra,15fc <printf>
     804:	00810593          	addi	a1,sp,8
     808:	00700513          	li	a0,7
     80c:	3ac000ef          	jal	ra,bb8 <ioe_read>
     810:	00814783          	lbu	a5,8(sp)
     814:	00005a17          	auipc	s4,0x5
     818:	368a0a13          	addi	s4,s4,872 # 5b7c <has_kbd>
     81c:	00001497          	auipc	s1,0x1
     820:	4ac48493          	addi	s1,s1,1196 # 1cc8 <names>
     824:	00fa0023          	sb	a5,0(s4)
     828:	00001917          	auipc	s2,0x1
     82c:	49890913          	addi	s2,s2,1176 # 1cc0 <dy.0+0x200>
     830:	00001997          	auipc	s3,0x1
     834:	48898993          	addi	s3,s3,1160 # 1cb8 <dy.0+0x1f8>
     838:	00001417          	auipc	s0,0x1
     83c:	2c440413          	addi	s0,s0,708 # 1afc <dy.0+0x3c>
     840:	00079e63          	bnez	a5,85c <keyboard_test+0x80>
     844:	0000006f          	j	844 <keyboard_test+0x68>
     848:	0007a583          	lw	a1,0(a5)
     84c:	00090693          	mv	a3,s2
     850:	00071463          	bnez	a4,858 <keyboard_test+0x7c>
     854:	00098693          	mv	a3,s3
     858:	5a5000ef          	jal	ra,15fc <printf>
     85c:	00800513          	li	a0,8
     860:	00810593          	addi	a1,sp,8
     864:	354000ef          	jal	ra,bb8 <ioe_read>
     868:	00c12603          	lw	a2,12(sp)
     86c:	00814703          	lbu	a4,8(sp)
     870:	00040513          	mv	a0,s0
     874:	00261793          	slli	a5,a2,0x2
     878:	00f487b3          	add	a5,s1,a5
     87c:	fc0616e3          	bnez	a2,848 <keyboard_test+0x6c>
     880:	000a4783          	lbu	a5,0(s4)
     884:	fc079ce3          	bnez	a5,85c <keyboard_test+0x80>
     888:	fbdff06f          	j	844 <keyboard_test+0x68>

0000088c <init_txt>:
     88c:	00001797          	auipc	a5,0x1
     890:	64c78793          	addi	a5,a5,1612 # 1ed8 <names+0x210>
     894:	0007a603          	lw	a2,0(a5)
     898:	0047a683          	lw	a3,4(a5)
     89c:	0087a703          	lw	a4,8(a5)
     8a0:	00c7a783          	lw	a5,12(a5)
     8a4:	fe010113          	addi	sp,sp,-32
     8a8:	00010593          	mv	a1,sp
     8ac:	07000813          	li	a6,112
     8b0:	01100513          	li	a0,17
     8b4:	00112e23          	sw	ra,28(sp)
     8b8:	00c12023          	sw	a2,0(sp)
     8bc:	00d12223          	sw	a3,4(sp)
     8c0:	00e12423          	sw	a4,8(sp)
     8c4:	00f12623          	sw	a5,12(sp)
     8c8:	00001897          	auipc	a7,0x1
     8cc:	6b0886a3          	sb	a6,1709(a7) # 1f75 <serialcol>
     8d0:	304000ef          	jal	ra,bd4 <ioe_write>
     8d4:	01c12083          	lw	ra,28(sp)
     8d8:	02010113          	addi	sp,sp,32
     8dc:	00008067          	ret

000008e0 <init_img>:
     8e0:	fc010113          	addi	sp,sp,-64
     8e4:	02812c23          	sw	s0,56(sp)
     8e8:	02912a23          	sw	s1,52(sp)
     8ec:	03212823          	sw	s2,48(sp)
     8f0:	03312623          	sw	s3,44(sp)
     8f4:	03412423          	sw	s4,40(sp)
     8f8:	02112e23          	sw	ra,60(sp)
     8fc:	00000413          	li	s0,0
     900:	00005a17          	auipc	s4,0x5
     904:	878a0a13          	addi	s4,s4,-1928 # 5178 <space>
     908:	28000993          	li	s3,640
     90c:	00100913          	li	s2,1
     910:	1e000493          	li	s1,480
     914:	00812623          	sw	s0,12(sp)
     918:	00810593          	addi	a1,sp,8
     91c:	00140413          	addi	s0,s0,1
     920:	00b00513          	li	a0,11
     924:	00012423          	sw	zero,8(sp)
     928:	01412823          	sw	s4,16(sp)
     92c:	01312a23          	sw	s3,20(sp)
     930:	01212c23          	sw	s2,24(sp)
     934:	00010e23          	sb	zero,28(sp)
     938:	29c000ef          	jal	ra,bd4 <ioe_write>
     93c:	fc941ce3          	bne	s0,s1,914 <init_img+0x34>
     940:	03c12083          	lw	ra,60(sp)
     944:	03812403          	lw	s0,56(sp)
     948:	03412483          	lw	s1,52(sp)
     94c:	03012903          	lw	s2,48(sp)
     950:	02c12983          	lw	s3,44(sp)
     954:	02812a03          	lw	s4,40(sp)
     958:	04010113          	addi	sp,sp,64
     95c:	00008067          	ret

00000960 <main>:
     960:	fd010113          	addi	sp,sp,-48
     964:	00c10593          	addi	a1,sp,12
     968:	01000513          	li	a0,16
     96c:	02112623          	sw	ra,44(sp)
     970:	02812423          	sw	s0,40(sp)
     974:	02912223          	sw	s1,36(sp)
     978:	03212023          	sw	s2,32(sp)
     97c:	01312e23          	sw	s3,28(sp)
     980:	238000ef          	jal	ra,bb8 <ioe_read>
     984:	00c12783          	lw	a5,12(sp)
     988:	00500713          	li	a4,5
     98c:	0ef76e63          	bltu	a4,a5,a88 <main+0x128>
     990:	00001717          	auipc	a4,0x1
     994:	4ac70713          	addi	a4,a4,1196 # 1e3c <names+0x174>
     998:	00279793          	slli	a5,a5,0x2
     99c:	00e787b3          	add	a5,a5,a4
     9a0:	0007a783          	lw	a5,0(a5)
     9a4:	00e787b3          	add	a5,a5,a4
     9a8:	00078067          	jr	a5
     9ac:	fffff797          	auipc	a5,0xfffff
     9b0:	6b078793          	addi	a5,a5,1712 # 5c <coltxt>
     9b4:	00005717          	auipc	a4,0x5
     9b8:	1cf72623          	sw	a5,460(a4) # 5b80 <entry>
     9bc:	1a4000ef          	jal	ra,b60 <vga_set_txt>
     9c0:	ecdff0ef          	jal	ra,88c <init_txt>
     9c4:	e98ff0ef          	jal	ra,5c <coltxt>
     9c8:	02c12083          	lw	ra,44(sp)
     9cc:	02812403          	lw	s0,40(sp)
     9d0:	02412483          	lw	s1,36(sp)
     9d4:	02012903          	lw	s2,32(sp)
     9d8:	01c12983          	lw	s3,28(sp)
     9dc:	00000513          	li	a0,0
     9e0:	03010113          	addi	sp,sp,48
     9e4:	00008067          	ret
     9e8:	00000797          	auipc	a5,0x0
     9ec:	88478793          	addi	a5,a5,-1916 # 26c <board_io_port>
     9f0:	00005717          	auipc	a4,0x5
     9f4:	18f72823          	sw	a5,400(a4) # 5b80 <entry>
     9f8:	168000ef          	jal	ra,b60 <vga_set_txt>
     9fc:	e91ff0ef          	jal	ra,88c <init_txt>
     a00:	86dff0ef          	jal	ra,26c <board_io_port>
     a04:	fc5ff06f          	j	9c8 <main+0x68>
     a08:	fffff797          	auipc	a5,0xfffff
     a0c:	60878793          	addi	a5,a5,1544 # 10 <hello>
     a10:	00005717          	auipc	a4,0x5
     a14:	16f72823          	sw	a5,368(a4) # 5b80 <entry>
     a18:	148000ef          	jal	ra,b60 <vga_set_txt>
     a1c:	e71ff0ef          	jal	ra,88c <init_txt>
     a20:	df0ff0ef          	jal	ra,10 <hello>
     a24:	fa5ff06f          	j	9c8 <main+0x68>
     a28:	fffff797          	auipc	a5,0xfffff
     a2c:	76878793          	addi	a5,a5,1896 # 190 <rtc_test>
     a30:	00005717          	auipc	a4,0x5
     a34:	14f72823          	sw	a5,336(a4) # 5b80 <entry>
     a38:	128000ef          	jal	ra,b60 <vga_set_txt>
     a3c:	e51ff0ef          	jal	ra,88c <init_txt>
     a40:	f50ff0ef          	jal	ra,190 <rtc_test>
     a44:	f85ff06f          	j	9c8 <main+0x68>
     a48:	00000797          	auipc	a5,0x0
     a4c:	d9478793          	addi	a5,a5,-620 # 7dc <keyboard_test>
     a50:	00005717          	auipc	a4,0x5
     a54:	12f72823          	sw	a5,304(a4) # 5b80 <entry>
     a58:	108000ef          	jal	ra,b60 <vga_set_txt>
     a5c:	e31ff0ef          	jal	ra,88c <init_txt>
     a60:	d7dff0ef          	jal	ra,7dc <keyboard_test>
     a64:	f65ff06f          	j	9c8 <main+0x68>
     a68:	00000797          	auipc	a5,0x0
     a6c:	cd078793          	addi	a5,a5,-816 # 738 <video_test>
     a70:	00005717          	auipc	a4,0x5
     a74:	10f72823          	sw	a5,272(a4) # 5b80 <entry>
     a78:	0f8000ef          	jal	ra,b70 <vga_set_img>
     a7c:	e65ff0ef          	jal	ra,8e0 <init_img>
     a80:	cb9ff0ef          	jal	ra,738 <video_test>
     a84:	f45ff06f          	j	9c8 <main+0x68>
     a88:	00001517          	auipc	a0,0x1
     a8c:	38c50513          	addi	a0,a0,908 # 1e14 <names+0x14c>
     a90:	36d000ef          	jal	ra,15fc <printf>
     a94:	00001497          	auipc	s1,0x1
     a98:	45448493          	addi	s1,s1,1108 # 1ee8 <tests>
     a9c:	00000413          	li	s0,0
     aa0:	00001997          	auipc	s3,0x1
     aa4:	39098993          	addi	s3,s3,912 # 1e30 <names+0x168>
     aa8:	00700913          	li	s2,7
     aac:	0004a603          	lw	a2,0(s1)
     ab0:	00060863          	beqz	a2,ac0 <main+0x160>
     ab4:	00040593          	mv	a1,s0
     ab8:	00098513          	mv	a0,s3
     abc:	341000ef          	jal	ra,15fc <printf>
     ac0:	00140413          	addi	s0,s0,1
     ac4:	00448493          	addi	s1,s1,4
     ac8:	ff2412e3          	bne	s0,s2,aac <main+0x14c>
     acc:	efdff06f          	j	9c8 <main+0x68>

00000ad0 <putch>:
     ad0:	00005617          	auipc	a2,0x5
     ad4:	0b860613          	addi	a2,a2,184 # 5b88 <txt_y>
     ad8:	00a00793          	li	a5,10
     adc:	00062703          	lw	a4,0(a2)
     ae0:	06f50663          	beq	a0,a5,b4c <putch+0x7c>
     ae4:	00005697          	auipc	a3,0x5
     ae8:	0a068693          	addi	a3,a3,160 # 5b84 <txt_x>
     aec:	0006a583          	lw	a1,0(a3)
     af0:	00271793          	slli	a5,a4,0x2
     af4:	00e787b3          	add	a5,a5,a4
     af8:	00479793          	slli	a5,a5,0x4
     afc:	00b787b3          	add	a5,a5,a1
     b00:	20000737          	lui	a4,0x20000
     b04:	00e78733          	add	a4,a5,a4
     b08:	00a70023          	sb	a0,0(a4) # 20000000 <_end+0x1fff2000>
     b0c:	300005b7          	lui	a1,0x30000
     b10:	00001717          	auipc	a4,0x1
     b14:	46574703          	lbu	a4,1125(a4) # 1f75 <serialcol>
     b18:	00b787b3          	add	a5,a5,a1
     b1c:	00e78023          	sb	a4,0(a5)
     b20:	0006a783          	lw	a5,0(a3)
     b24:	04f00713          	li	a4,79
     b28:	00178793          	addi	a5,a5,1
     b2c:	00f6a023          	sw	a5,0(a3)
     b30:	00f75c63          	bge	a4,a5,b48 <putch+0x78>
     b34:	00062783          	lw	a5,0(a2)
     b38:	00005717          	auipc	a4,0x5
     b3c:	04072623          	sw	zero,76(a4) # 5b84 <txt_x>
     b40:	00178793          	addi	a5,a5,1
     b44:	00f62023          	sw	a5,0(a2)
     b48:	00008067          	ret
     b4c:	00170713          	addi	a4,a4,1
     b50:	00005797          	auipc	a5,0x5
     b54:	0207aa23          	sw	zero,52(a5) # 5b84 <txt_x>
     b58:	00e62023          	sw	a4,0(a2)
     b5c:	00008067          	ret

00000b60 <vga_set_txt>:
     b60:	a00007b7          	lui	a5,0xa0000
     b64:	00100713          	li	a4,1
     b68:	00e78023          	sb	a4,0(a5) # a0000000 <_end+0x9fff2000>
     b6c:	00008067          	ret

00000b70 <vga_set_img>:
     b70:	a00007b7          	lui	a5,0xa0000
     b74:	00078023          	sb	zero,0(a5) # a0000000 <_end+0x9fff2000>
     b78:	00008067          	ret

00000b7c <_trm_init>:
     b7c:	ff010113          	addi	sp,sp,-16
     b80:	00001517          	auipc	a0,0x1
     b84:	3e850513          	addi	a0,a0,1000 # 1f68 <mainargs>
     b88:	00112623          	sw	ra,12(sp)
     b8c:	dd5ff0ef          	jal	ra,960 <main>
     b90:	00050513          	mv	a0,a0
     b94:	00100073          	ebreak
     b98:	0000006f          	j	b98 <_trm_init+0x1c>

00000b9c <__am_timer_config>:
     b9c:	00100793          	li	a5,1
     ba0:	00f50023          	sb	a5,0(a0)
     ba4:	00f500a3          	sb	a5,1(a0)
     ba8:	00008067          	ret

00000bac <__am_input_config>:
     bac:	00100793          	li	a5,1
     bb0:	00f50023          	sb	a5,0(a0)
     bb4:	00008067          	ret

00000bb8 <ioe_read>:
     bb8:	00251513          	slli	a0,a0,0x2
     bbc:	00001797          	auipc	a5,0x1
     bc0:	3bc78793          	addi	a5,a5,956 # 1f78 <lut>
     bc4:	00a787b3          	add	a5,a5,a0
     bc8:	0007a783          	lw	a5,0(a5)
     bcc:	00058513          	mv	a0,a1
     bd0:	00078067          	jr	a5

00000bd4 <ioe_write>:
     bd4:	00251513          	slli	a0,a0,0x2
     bd8:	00001797          	auipc	a5,0x1
     bdc:	3a078793          	addi	a5,a5,928 # 1f78 <lut>
     be0:	00a787b3          	add	a5,a5,a0
     be4:	0007a783          	lw	a5,0(a5)
     be8:	00058513          	mv	a0,a1
     bec:	00078067          	jr	a5

00000bf0 <__am_timer_uptime>:
     bf0:	a00007b7          	lui	a5,0xa0000
     bf4:	04c7a703          	lw	a4,76(a5) # a000004c <_end+0x9fff204c>
     bf8:	0487a783          	lw	a5,72(a5)
     bfc:	00e52223          	sw	a4,4(a0)
     c00:	00f52023          	sw	a5,0(a0)
     c04:	00008067          	ret

00000c08 <__am_timer_rtc>:
     c08:	76c00793          	li	a5,1900
     c0c:	00052a23          	sw	zero,20(a0)
     c10:	00052823          	sw	zero,16(a0)
     c14:	00052623          	sw	zero,12(a0)
     c18:	00052423          	sw	zero,8(a0)
     c1c:	00052223          	sw	zero,4(a0)
     c20:	00f52023          	sw	a5,0(a0)
     c24:	00008067          	ret

00000c28 <__am_input_keybrd>:
     c28:	400007b7          	lui	a5,0x40000
     c2c:	0007a783          	lw	a5,0(a5) # 40000000 <_end+0x3fff2000>
     c30:	ffff86b7          	lui	a3,0xffff8
     c34:	fff68693          	addi	a3,a3,-1 # ffff7fff <_end+0xfffe9fff>
     c38:	00f7d713          	srli	a4,a5,0xf
     c3c:	00177713          	andi	a4,a4,1
     c40:	00d7f7b3          	and	a5,a5,a3
     c44:	00e50023          	sb	a4,0(a0)
     c48:	00f52223          	sw	a5,4(a0)
     c4c:	00008067          	ret

00000c50 <__am_input_sw>:
     c50:	900007b7          	lui	a5,0x90000
     c54:	0007a783          	lw	a5,0(a5) # 90000000 <_end+0x8fff2000>
     c58:	00f52023          	sw	a5,0(a0)
     c5c:	00008067          	ret

00000c60 <__am_gpu_config>:
     c60:	00001797          	auipc	a5,0x1
     c64:	2a478793          	addi	a5,a5,676 # 1f04 <tests+0x1c>
     c68:	0007a603          	lw	a2,0(a5)
     c6c:	0047a683          	lw	a3,4(a5)
     c70:	0087a703          	lw	a4,8(a5)
     c74:	00c7a783          	lw	a5,12(a5)
     c78:	00c52023          	sw	a2,0(a0)
     c7c:	00d52223          	sw	a3,4(a0)
     c80:	00e52423          	sw	a4,8(a0)
     c84:	00f52623          	sw	a5,12(a0)
     c88:	00008067          	ret

00000c8c <__am_gpu_fbdraw>:
     c8c:	00452583          	lw	a1,4(a0)
     c90:	01052803          	lw	a6,16(a0)
     c94:	00852703          	lw	a4,8(a0)
     c98:	00058313          	mv	t1,a1
     c9c:	07005263          	blez	a6,d00 <__am_gpu_fbdraw+0x74>
     ca0:	00259893          	slli	a7,a1,0x2
     ca4:	00052603          	lw	a2,0(a0)
     ca8:	00c52683          	lw	a3,12(a0)
     cac:	00b888b3          	add	a7,a7,a1
     cb0:	00789893          	slli	a7,a7,0x7
     cb4:	60000e37          	lui	t3,0x60000
     cb8:	00060793          	mv	a5,a2
     cbc:	02d05a63          	blez	a3,cf0 <__am_gpu_fbdraw+0x64>
     cc0:	01c88833          	add	a6,a7,t3
     cc4:	00072603          	lw	a2,0(a4)
     cc8:	00f806b3          	add	a3,a6,a5
     ccc:	00178793          	addi	a5,a5,1
     cd0:	00c6a023          	sw	a2,0(a3)
     cd4:	00052603          	lw	a2,0(a0)
     cd8:	00c52683          	lw	a3,12(a0)
     cdc:	00470713          	addi	a4,a4,4
     ce0:	00d605b3          	add	a1,a2,a3
     ce4:	feb7c0e3          	blt	a5,a1,cc4 <__am_gpu_fbdraw+0x38>
     ce8:	00452583          	lw	a1,4(a0)
     cec:	01052803          	lw	a6,16(a0)
     cf0:	00130313          	addi	t1,t1,1
     cf4:	010587b3          	add	a5,a1,a6
     cf8:	28088893          	addi	a7,a7,640
     cfc:	faf34ee3          	blt	t1,a5,cb8 <__am_gpu_fbdraw+0x2c>
     d00:	00008067          	ret

00000d04 <__am_gpu_status>:
     d04:	00100793          	li	a5,1
     d08:	00f50023          	sb	a5,0(a0)
     d0c:	00008067          	ret

00000d10 <__am_txt_fbdraw>:
     d10:	00c52783          	lw	a5,12(a0)
     d14:	00852883          	lw	a7,8(a0)
     d18:	00052703          	lw	a4,0(a0)
     d1c:	00452603          	lw	a2,4(a0)
     d20:	06f05263          	blez	a5,d84 <__am_txt_fbdraw+0x74>
     d24:	00088693          	mv	a3,a7
     d28:	00001f17          	auipc	t5,0x1
     d2c:	24df0f13          	addi	t5,t5,589 # 1f75 <serialcol>
     d30:	20000eb7          	lui	t4,0x20000
     d34:	30000e37          	lui	t3,0x30000
     d38:	04f00313          	li	t1,79
     d3c:	00261793          	slli	a5,a2,0x2
     d40:	00c787b3          	add	a5,a5,a2
     d44:	0006c803          	lbu	a6,0(a3)
     d48:	00479793          	slli	a5,a5,0x4
     d4c:	00e787b3          	add	a5,a5,a4
     d50:	01d785b3          	add	a1,a5,t4
     d54:	01058023          	sb	a6,0(a1) # 30000000 <_end+0x2fff2000>
     d58:	000f4583          	lbu	a1,0(t5)
     d5c:	01c787b3          	add	a5,a5,t3
     d60:	00168693          	addi	a3,a3,1
     d64:	00b78023          	sb	a1,0(a5)
     d68:	00170713          	addi	a4,a4,1
     d6c:	411685b3          	sub	a1,a3,a7
     d70:	00e35663          	bge	t1,a4,d7c <__am_txt_fbdraw+0x6c>
     d74:	00160613          	addi	a2,a2,1
     d78:	00000713          	li	a4,0
     d7c:	00c52783          	lw	a5,12(a0)
     d80:	faf5cee3          	blt	a1,a5,d3c <__am_txt_fbdraw+0x2c>
     d84:	00008067          	ret

00000d88 <__am_light_led>:
     d88:	00052683          	lw	a3,0(a0)
     d8c:	00454703          	lbu	a4,4(a0)
     d90:	700007b7          	lui	a5,0x70000
     d94:	00d787b3          	add	a5,a5,a3
     d98:	00e78023          	sb	a4,0(a5) # 70000000 <_end+0x6fff2000>
     d9c:	00008067          	ret

00000da0 <__am_light_seg>:
     da0:	00052683          	lw	a3,0(a0)
     da4:	00454703          	lbu	a4,4(a0)
     da8:	800007b7          	lui	a5,0x80000
     dac:	00d787b3          	add	a5,a5,a3
     db0:	00e78023          	sb	a4,0(a5) # 80000000 <_end+0x7fff2000>
     db4:	00008067          	ret

00000db8 <__udivmoddi4>:
     db8:	fe010113          	addi	sp,sp,-32
     dbc:	01212823          	sw	s2,16(sp)
     dc0:	01412423          	sw	s4,8(sp)
     dc4:	01512223          	sw	s5,4(sp)
     dc8:	01612023          	sw	s6,0(sp)
     dcc:	00112e23          	sw	ra,28(sp)
     dd0:	00812c23          	sw	s0,24(sp)
     dd4:	00912a23          	sw	s1,20(sp)
     dd8:	01312623          	sw	s3,12(sp)
     ddc:	00068a93          	mv	s5,a3
     de0:	00050b13          	mv	s6,a0
     de4:	00060a13          	mv	s4,a2
     de8:	00070913          	mv	s2,a4
     dec:	04059c63          	bnez	a1,e44 <__udivmoddi4+0x8c>
     df0:	1a069063          	bnez	a3,f90 <__udivmoddi4+0x1d8>
     df4:	00070a63          	beqz	a4,e08 <__udivmoddi4+0x50>
     df8:	00060593          	mv	a1,a2
     dfc:	389000ef          	jal	ra,1984 <umodsi3>
     e00:	00a92023          	sw	a0,0(s2)
     e04:	00092223          	sw	zero,4(s2)
     e08:	000a0593          	mv	a1,s4
     e0c:	000b0513          	mv	a0,s6
     e10:	375000ef          	jal	ra,1984 <umodsi3>
     e14:	00058513          	mv	a0,a1
     e18:	00000593          	li	a1,0
     e1c:	01c12083          	lw	ra,28(sp)
     e20:	01812403          	lw	s0,24(sp)
     e24:	01412483          	lw	s1,20(sp)
     e28:	01012903          	lw	s2,16(sp)
     e2c:	00c12983          	lw	s3,12(sp)
     e30:	00812a03          	lw	s4,8(sp)
     e34:	00412a83          	lw	s5,4(sp)
     e38:	00012b03          	lw	s6,0(sp)
     e3c:	02010113          	addi	sp,sp,32
     e40:	00008067          	ret
     e44:	00058493          	mv	s1,a1
     e48:	00058413          	mv	s0,a1
     e4c:	0e061863          	bnez	a2,f3c <__udivmoddi4+0x184>
     e50:	1a068263          	beqz	a3,ff4 <__udivmoddi4+0x23c>
     e54:	22050a63          	beqz	a0,1088 <__udivmoddi4+0x2d0>
     e58:	fff68793          	addi	a5,a3,-1
     e5c:	00d7f733          	and	a4,a5,a3
     e60:	26070c63          	beqz	a4,10d8 <__udivmoddi4+0x320>
     e64:	00068513          	mv	a0,a3
     e68:	2d0000ef          	jal	ra,1138 <__clzsi2>
     e6c:	00050993          	mv	s3,a0
     e70:	00048513          	mv	a0,s1
     e74:	2c4000ef          	jal	ra,1138 <__clzsi2>
     e78:	40a985b3          	sub	a1,s3,a0
     e7c:	01e00793          	li	a5,30
     e80:	1ab7e263          	bltu	a5,a1,1024 <__udivmoddi4+0x26c>
     e84:	00158593          	addi	a1,a1,1
     e88:	02000713          	li	a4,32
     e8c:	40b70733          	sub	a4,a4,a1
     e90:	00e49533          	sll	a0,s1,a4
     e94:	00bb5633          	srl	a2,s6,a1
     e98:	00b4d7b3          	srl	a5,s1,a1
     e9c:	00eb16b3          	sll	a3,s6,a4
     ea0:	00c56433          	or	s0,a0,a2
     ea4:	00000993          	li	s3,0
     ea8:	00000713          	li	a4,0
     eac:	01f6d613          	srli	a2,a3,0x1f
     eb0:	00141813          	slli	a6,s0,0x1
     eb4:	00c86833          	or	a6,a6,a2
     eb8:	01f45413          	srli	s0,s0,0x1f
     ebc:	00179793          	slli	a5,a5,0x1
     ec0:	0087e7b3          	or	a5,a5,s0
     ec4:	410a0333          	sub	t1,s4,a6
     ec8:	006a3633          	sltu	a2,s4,t1
     ecc:	40fa88b3          	sub	a7,s5,a5
     ed0:	40c888b3          	sub	a7,a7,a2
     ed4:	00133313          	seqz	t1,t1
     ed8:	406888b3          	sub	a7,a7,t1
     edc:	41f8d313          	srai	t1,a7,0x1f
     ee0:	01437433          	and	s0,t1,s4
     ee4:	40880433          	sub	s0,a6,s0
     ee8:	01537333          	and	t1,t1,s5
     eec:	01f9d613          	srli	a2,s3,0x1f
     ef0:	00169693          	slli	a3,a3,0x1
     ef4:	00199513          	slli	a0,s3,0x1
     ef8:	00883833          	sltu	a6,a6,s0
     efc:	406787b3          	sub	a5,a5,t1
     f00:	fff58593          	addi	a1,a1,-1
     f04:	00e569b3          	or	s3,a0,a4
     f08:	410787b3          	sub	a5,a5,a6
     f0c:	00c6e6b3          	or	a3,a3,a2
     f10:	01f8d713          	srli	a4,a7,0x1f
     f14:	f8059ce3          	bnez	a1,eac <__udivmoddi4+0xf4>
     f18:	01f9d493          	srli	s1,s3,0x1f
     f1c:	00169693          	slli	a3,a3,0x1
     f20:	00199513          	slli	a0,s3,0x1
     f24:	00e56533          	or	a0,a0,a4
     f28:	00d4e5b3          	or	a1,s1,a3
     f2c:	ee0908e3          	beqz	s2,e1c <__udivmoddi4+0x64>
     f30:	00892023          	sw	s0,0(s2)
     f34:	00f92223          	sw	a5,4(s2)
     f38:	ee5ff06f          	j	e1c <__udivmoddi4+0x64>
     f3c:	06068663          	beqz	a3,fa8 <__udivmoddi4+0x1f0>
     f40:	00068513          	mv	a0,a3
     f44:	1f4000ef          	jal	ra,1138 <__clzsi2>
     f48:	00050993          	mv	s3,a0
     f4c:	00048513          	mv	a0,s1
     f50:	1e8000ef          	jal	ra,1138 <__clzsi2>
     f54:	40a985b3          	sub	a1,s3,a0
     f58:	01f00793          	li	a5,31
     f5c:	0cb7e463          	bltu	a5,a1,1024 <__udivmoddi4+0x26c>
     f60:	00158593          	addi	a1,a1,1
     f64:	02000793          	li	a5,32
     f68:	000b0693          	mv	a3,s6
     f6c:	18f58863          	beq	a1,a5,10fc <__udivmoddi4+0x344>
     f70:	40b78733          	sub	a4,a5,a1
     f74:	00bb5633          	srl	a2,s6,a1
     f78:	00e49533          	sll	a0,s1,a4
     f7c:	00b4d7b3          	srl	a5,s1,a1
     f80:	00eb16b3          	sll	a3,s6,a4
     f84:	00c56433          	or	s0,a0,a2
     f88:	00000993          	li	s3,0
     f8c:	f1dff06f          	j	ea8 <__udivmoddi4+0xf0>
     f90:	08070c63          	beqz	a4,1028 <__udivmoddi4+0x270>
     f94:	00a92023          	sw	a0,0(s2)
     f98:	00072223          	sw	zero,4(a4)
     f9c:	00000513          	li	a0,0
     fa0:	00000593          	li	a1,0
     fa4:	e79ff06f          	j	e1c <__udivmoddi4+0x64>
     fa8:	fff60793          	addi	a5,a2,-1
     fac:	00c7f733          	and	a4,a5,a2
     fb0:	08071263          	bnez	a4,1034 <__udivmoddi4+0x27c>
     fb4:	00090863          	beqz	s2,fc4 <__udivmoddi4+0x20c>
     fb8:	00a7f7b3          	and	a5,a5,a0
     fbc:	00f92023          	sw	a5,0(s2)
     fc0:	00092223          	sw	zero,4(s2)
     fc4:	00100793          	li	a5,1
     fc8:	10fa0263          	beq	s4,a5,10cc <__udivmoddi4+0x314>
     fcc:	000a0513          	mv	a0,s4
     fd0:	200000ef          	jal	ra,11d0 <__ctzsi2>
     fd4:	02000793          	li	a5,32
     fd8:	40a787b3          	sub	a5,a5,a0
     fdc:	00050713          	mv	a4,a0
     fe0:	00f497b3          	sll	a5,s1,a5
     fe4:	00ab56b3          	srl	a3,s6,a0
     fe8:	00d7e533          	or	a0,a5,a3
     fec:	00e4d5b3          	srl	a1,s1,a4
     ff0:	e2dff06f          	j	e1c <__udivmoddi4+0x64>
     ff4:	00070c63          	beqz	a4,100c <__udivmoddi4+0x254>
     ff8:	00000593          	li	a1,0
     ffc:	00048513          	mv	a0,s1
    1000:	185000ef          	jal	ra,1984 <umodsi3>
    1004:	00a92023          	sw	a0,0(s2)
    1008:	00092223          	sw	zero,4(s2)
    100c:	00000593          	li	a1,0
    1010:	00048513          	mv	a0,s1
    1014:	171000ef          	jal	ra,1984 <umodsi3>
    1018:	00058513          	mv	a0,a1
    101c:	00000593          	li	a1,0
    1020:	dfdff06f          	j	e1c <__udivmoddi4+0x64>
    1024:	08091a63          	bnez	s2,10b8 <__udivmoddi4+0x300>
    1028:	00000513          	li	a0,0
    102c:	00000593          	li	a1,0
    1030:	dedff06f          	j	e1c <__udivmoddi4+0x64>
    1034:	00060513          	mv	a0,a2
    1038:	00068993          	mv	s3,a3
    103c:	0fc000ef          	jal	ra,1138 <__clzsi2>
    1040:	00050493          	mv	s1,a0
    1044:	00040513          	mv	a0,s0
    1048:	0f0000ef          	jal	ra,1138 <__clzsi2>
    104c:	40a48533          	sub	a0,s1,a0
    1050:	02150593          	addi	a1,a0,33
    1054:	02000713          	li	a4,32
    1058:	000b0693          	mv	a3,s6
    105c:	00000793          	li	a5,0
    1060:	e4e584e3          	beq	a1,a4,ea8 <__udivmoddi4+0xf0>
    1064:	01f00613          	li	a2,31
    1068:	0ab66063          	bltu	a2,a1,1108 <__udivmoddi4+0x350>
    106c:	40b70733          	sub	a4,a4,a1
    1070:	00bb5633          	srl	a2,s6,a1
    1074:	00e41533          	sll	a0,s0,a4
    1078:	00b457b3          	srl	a5,s0,a1
    107c:	00eb16b3          	sll	a3,s6,a4
    1080:	00c56433          	or	s0,a0,a2
    1084:	e25ff06f          	j	ea8 <__udivmoddi4+0xf0>
    1088:	00070c63          	beqz	a4,10a0 <__udivmoddi4+0x2e8>
    108c:	00068593          	mv	a1,a3
    1090:	00048513          	mv	a0,s1
    1094:	0f1000ef          	jal	ra,1984 <umodsi3>
    1098:	00a92223          	sw	a0,4(s2)
    109c:	00092023          	sw	zero,0(s2)
    10a0:	000a8593          	mv	a1,s5
    10a4:	00048513          	mv	a0,s1
    10a8:	0dd000ef          	jal	ra,1984 <umodsi3>
    10ac:	00058513          	mv	a0,a1
    10b0:	00000593          	li	a1,0
    10b4:	d69ff06f          	j	e1c <__udivmoddi4+0x64>
    10b8:	01692023          	sw	s6,0(s2)
    10bc:	00992223          	sw	s1,4(s2)
    10c0:	00000513          	li	a0,0
    10c4:	00000593          	li	a1,0
    10c8:	d55ff06f          	j	e1c <__udivmoddi4+0x64>
    10cc:	000b0513          	mv	a0,s6
    10d0:	00048593          	mv	a1,s1
    10d4:	d49ff06f          	j	e1c <__udivmoddi4+0x64>
    10d8:	00090863          	beqz	s2,10e8 <__udivmoddi4+0x330>
    10dc:	00b7f7b3          	and	a5,a5,a1
    10e0:	00a92023          	sw	a0,0(s2)
    10e4:	00f92223          	sw	a5,4(s2)
    10e8:	000a8513          	mv	a0,s5
    10ec:	0e4000ef          	jal	ra,11d0 <__ctzsi2>
    10f0:	00a4d533          	srl	a0,s1,a0
    10f4:	00000593          	li	a1,0
    10f8:	d25ff06f          	j	e1c <__udivmoddi4+0x64>
    10fc:	00000793          	li	a5,0
    1100:	00000993          	li	s3,0
    1104:	da5ff06f          	j	ea8 <__udivmoddi4+0xf0>
    1108:	04000613          	li	a2,64
    110c:	00150713          	addi	a4,a0,1
    1110:	40b60633          	sub	a2,a2,a1
    1114:	00cb1533          	sll	a0,s6,a2
    1118:	00eb56b3          	srl	a3,s6,a4
    111c:	00c41633          	sll	a2,s0,a2
    1120:	00d666b3          	or	a3,a2,a3
    1124:	00e45433          	srl	s0,s0,a4
    1128:	00050993          	mv	s3,a0
    112c:	d7dff06f          	j	ea8 <__udivmoddi4+0xf0>

00001130 <__udivdi3>:
    1130:	00000713          	li	a4,0
    1134:	c85ff06f          	j	db8 <__udivmoddi4>

00001138 <__clzsi2>:
    1138:	ffff05b7          	lui	a1,0xffff0
    113c:	00b575b3          	and	a1,a0,a1
    1140:	0015b593          	seqz	a1,a1
    1144:	00459593          	slli	a1,a1,0x4
    1148:	01000793          	li	a5,16
    114c:	40b787b3          	sub	a5,a5,a1
    1150:	00010737          	lui	a4,0x10
    1154:	00f557b3          	srl	a5,a0,a5
    1158:	f0070713          	addi	a4,a4,-256 # ff00 <_end+0x1f00>
    115c:	00e7f733          	and	a4,a5,a4
    1160:	00173713          	seqz	a4,a4
    1164:	00371713          	slli	a4,a4,0x3
    1168:	00800693          	li	a3,8
    116c:	40e686b3          	sub	a3,a3,a4
    1170:	00d7d7b3          	srl	a5,a5,a3
    1174:	0f07f613          	andi	a2,a5,240
    1178:	00163613          	seqz	a2,a2
    117c:	00261613          	slli	a2,a2,0x2
    1180:	00400693          	li	a3,4
    1184:	40c686b3          	sub	a3,a3,a2
    1188:	00d7d7b3          	srl	a5,a5,a3
    118c:	00c7f693          	andi	a3,a5,12
    1190:	0016b693          	seqz	a3,a3
    1194:	00169693          	slli	a3,a3,0x1
    1198:	00200813          	li	a6,2
    119c:	40d80533          	sub	a0,a6,a3
    11a0:	00a7d7b3          	srl	a5,a5,a0
    11a4:	0017d513          	srli	a0,a5,0x1
    11a8:	00154513          	xori	a0,a0,1
    11ac:	00b70733          	add	a4,a4,a1
    11b0:	00157513          	andi	a0,a0,1
    11b4:	00e60633          	add	a2,a2,a4
    11b8:	40f80833          	sub	a6,a6,a5
    11bc:	40a00733          	neg	a4,a0
    11c0:	01077733          	and	a4,a4,a6
    11c4:	00c68533          	add	a0,a3,a2
    11c8:	00a70533          	add	a0,a4,a0
    11cc:	00008067          	ret

000011d0 <__ctzsi2>:
    11d0:	01051593          	slli	a1,a0,0x10
    11d4:	0105d593          	srli	a1,a1,0x10
    11d8:	0015b593          	seqz	a1,a1
    11dc:	00459593          	slli	a1,a1,0x4
    11e0:	00b557b3          	srl	a5,a0,a1
    11e4:	0ff7f613          	zext.b	a2,a5
    11e8:	00163613          	seqz	a2,a2
    11ec:	00361613          	slli	a2,a2,0x3
    11f0:	00c7d7b3          	srl	a5,a5,a2
    11f4:	00f7f693          	andi	a3,a5,15
    11f8:	0016b693          	seqz	a3,a3
    11fc:	00269693          	slli	a3,a3,0x2
    1200:	00d7d7b3          	srl	a5,a5,a3
    1204:	0037f713          	andi	a4,a5,3
    1208:	00173713          	seqz	a4,a4
    120c:	00171713          	slli	a4,a4,0x1
    1210:	00e7d7b3          	srl	a5,a5,a4
    1214:	0017d513          	srli	a0,a5,0x1
    1218:	00b60633          	add	a2,a2,a1
    121c:	0017f793          	andi	a5,a5,1
    1220:	00157593          	andi	a1,a0,1
    1224:	00200513          	li	a0,2
    1228:	00c686b3          	add	a3,a3,a2
    122c:	40b50533          	sub	a0,a0,a1
    1230:	fff78793          	addi	a5,a5,-1
    1234:	00f57533          	and	a0,a0,a5
    1238:	00d70733          	add	a4,a4,a3
    123c:	00e50533          	add	a0,a0,a4
    1240:	00008067          	ret

00001244 <int2str>:
    1244:	fa010113          	addi	sp,sp,-96
    1248:	03b12623          	sw	s11,44(sp)
    124c:	06412d83          	lw	s11,100(sp)
    1250:	04812c23          	sw	s0,88(sp)
    1254:	04912a23          	sw	s1,84(sp)
    1258:	05212823          	sw	s2,80(sp)
    125c:	05312623          	sw	s3,76(sp)
    1260:	05512223          	sw	s5,68(sp)
    1264:	05612023          	sw	s6,64(sp)
    1268:	03712e23          	sw	s7,60(sp)
    126c:	03a12823          	sw	s10,48(sp)
    1270:	04112e23          	sw	ra,92(sp)
    1274:	05412423          	sw	s4,72(sp)
    1278:	03812c23          	sw	s8,56(sp)
    127c:	03912a23          	sw	s9,52(sp)
    1280:	00b12623          	sw	a1,12(sp)
    1284:	00f12423          	sw	a5,8(sp)
    1288:	06012b83          	lw	s7,96(sp)
    128c:	000dab03          	lw	s6,0(s11)
    1290:	00050413          	mv	s0,a0
    1294:	00060993          	mv	s3,a2
    1298:	00068a93          	mv	s5,a3
    129c:	00080913          	mv	s2,a6
    12a0:	00088d13          	mv	s10,a7
    12a4:	00000493          	li	s1,0
    12a8:	00070463          	beqz	a4,12b0 <int2str+0x6c>
    12ac:	18054e63          	bltz	a0,1448 <int2str+0x204>
    12b0:	01410a13          	addi	s4,sp,20
    12b4:	00900c93          	li	s9,9
    12b8:	0080006f          	j	12c0 <int2str+0x7c>
    12bc:	000c0493          	mv	s1,s8
    12c0:	00040513          	mv	a0,s0
    12c4:	00098593          	mv	a1,s3
    12c8:	6bc000ef          	jal	ra,1984 <umodsi3>
    12cc:	03050793          	addi	a5,a0,48
    12d0:	05750713          	addi	a4,a0,87
    12d4:	0ff7f793          	zext.b	a5,a5
    12d8:	00acf463          	bgeu	s9,a0,12e0 <int2str+0x9c>
    12dc:	0ff77793          	zext.b	a5,a4
    12e0:	00148c13          	addi	s8,s1,1
    12e4:	018a0733          	add	a4,s4,s8
    12e8:	00040513          	mv	a0,s0
    12ec:	00098593          	mv	a1,s3
    12f0:	fef70fa3          	sb	a5,-1(a4)
    12f4:	690000ef          	jal	ra,1984 <umodsi3>
    12f8:	00058413          	mv	s0,a1
    12fc:	fc0590e3          	bnez	a1,12bc <int2str+0x78>
    1300:	00812783          	lw	a5,8(sp)
    1304:	14079c63          	bnez	a5,145c <int2str+0x218>
    1308:	152c5a63          	bge	s8,s2,145c <int2str+0x218>
    130c:	00c12783          	lw	a5,12(sp)
    1310:	01c0006f          	j	132c <int2str+0xe8>
    1314:	01a78023          	sb	s10,0(a5)
    1318:	00040793          	mv	a5,s0
    131c:	000da703          	lw	a4,0(s11)
    1320:	00170713          	addi	a4,a4,1
    1324:	00eda023          	sw	a4,0(s11)
    1328:	032c0a63          	beq	s8,s2,135c <int2str+0x118>
    132c:	fff90913          	addi	s2,s2,-1
    1330:	ff7056e3          	blez	s7,131c <int2str+0xd8>
    1334:	00178413          	addi	s0,a5,1
    1338:	fffb8b93          	addi	s7,s7,-1
    133c:	fc0a8ce3          	beqz	s5,1314 <int2str+0xd0>
    1340:	000d0513          	mv	a0,s10
    1344:	f8cff0ef          	jal	ra,ad0 <putch>
    1348:	000da703          	lw	a4,0(s11)
    134c:	00040793          	mv	a5,s0
    1350:	00170713          	addi	a4,a4,1
    1354:	00eda023          	sw	a4,0(s11)
    1358:	fd2c1ae3          	bne	s8,s2,132c <int2str+0xe8>
    135c:	009a04b3          	add	s1,s4,s1
    1360:	01705e63          	blez	s7,137c <int2str+0x138>
    1364:	0004c503          	lbu	a0,0(s1)
    1368:	00178413          	addi	s0,a5,1
    136c:	fffb8b93          	addi	s7,s7,-1
    1370:	020a9463          	bnez	s5,1398 <int2str+0x154>
    1374:	00a78023          	sb	a0,0(a5)
    1378:	00040793          	mv	a5,s0
    137c:	000da703          	lw	a4,0(s11)
    1380:	fff48613          	addi	a2,s1,-1
    1384:	00170713          	addi	a4,a4,1
    1388:	00eda023          	sw	a4,0(s11)
    138c:	029a0463          	beq	s4,s1,13b4 <int2str+0x170>
    1390:	00060493          	mv	s1,a2
    1394:	fcdff06f          	j	1360 <int2str+0x11c>
    1398:	f38ff0ef          	jal	ra,ad0 <putch>
    139c:	000da703          	lw	a4,0(s11)
    13a0:	00040793          	mv	a5,s0
    13a4:	fff48613          	addi	a2,s1,-1
    13a8:	00170713          	addi	a4,a4,1
    13ac:	00eda023          	sw	a4,0(s11)
    13b0:	fe9a10e3          	bne	s4,s1,1390 <int2str+0x14c>
    13b4:	00812683          	lw	a3,8(sp)
    13b8:	02069063          	bnez	a3,13d8 <int2str+0x194>
    13bc:	0480006f          	j	1404 <int2str+0x1c0>
    13c0:	02000713          	li	a4,32
    13c4:	00e78023          	sb	a4,0(a5)
    13c8:	000da703          	lw	a4,0(s11)
    13cc:	00040793          	mv	a5,s0
    13d0:	00170713          	addi	a4,a4,1
    13d4:	00eda023          	sw	a4,0(s11)
    13d8:	41670633          	sub	a2,a4,s6
    13dc:	03865463          	bge	a2,s8,1404 <int2str+0x1c0>
    13e0:	ff7058e3          	blez	s7,13d0 <int2str+0x18c>
    13e4:	00178413          	addi	s0,a5,1
    13e8:	fffb8b93          	addi	s7,s7,-1
    13ec:	fc0a8ae3          	beqz	s5,13c0 <int2str+0x17c>
    13f0:	02000513          	li	a0,32
    13f4:	edcff0ef          	jal	ra,ad0 <putch>
    13f8:	000da703          	lw	a4,0(s11)
    13fc:	00040793          	mv	a5,s0
    1400:	fd1ff06f          	j	13d0 <int2str+0x18c>
    1404:	00c12703          	lw	a4,12(sp)
    1408:	05c12083          	lw	ra,92(sp)
    140c:	05812403          	lw	s0,88(sp)
    1410:	05412483          	lw	s1,84(sp)
    1414:	05012903          	lw	s2,80(sp)
    1418:	04c12983          	lw	s3,76(sp)
    141c:	04812a03          	lw	s4,72(sp)
    1420:	04412a83          	lw	s5,68(sp)
    1424:	04012b03          	lw	s6,64(sp)
    1428:	03c12b83          	lw	s7,60(sp)
    142c:	03812c03          	lw	s8,56(sp)
    1430:	03412c83          	lw	s9,52(sp)
    1434:	03012d03          	lw	s10,48(sp)
    1438:	02c12d83          	lw	s11,44(sp)
    143c:	40e78533          	sub	a0,a5,a4
    1440:	06010113          	addi	sp,sp,96
    1444:	00008067          	ret
    1448:	02d00793          	li	a5,45
    144c:	40a00433          	neg	s0,a0
    1450:	00f10a23          	sb	a5,20(sp)
    1454:	00100493          	li	s1,1
    1458:	e59ff06f          	j	12b0 <int2str+0x6c>
    145c:	00c12783          	lw	a5,12(sp)
    1460:	00090c13          	mv	s8,s2
    1464:	009a04b3          	add	s1,s4,s1
    1468:	ef9ff06f          	j	1360 <int2str+0x11c>

0000146c <printstr>:
    146c:	fd010113          	addi	sp,sp,-48
    1470:	01512a23          	sw	s5,20(sp)
    1474:	00068a93          	mv	s5,a3
    1478:	02812423          	sw	s0,40(sp)
    147c:	02912223          	sw	s1,36(sp)
    1480:	03212023          	sw	s2,32(sp)
    1484:	01312e23          	sw	s3,28(sp)
    1488:	01412c23          	sw	s4,24(sp)
    148c:	01612823          	sw	s6,16(sp)
    1490:	01712623          	sw	s7,12(sp)
    1494:	02112623          	sw	ra,44(sp)
    1498:	01812423          	sw	s8,8(sp)
    149c:	01912223          	sw	s9,4(sp)
    14a0:	00082983          	lw	s3,0(a6)
    14a4:	00080493          	mv	s1,a6
    14a8:	00050b13          	mv	s6,a0
    14ac:	00058a13          	mv	s4,a1
    14b0:	00060b93          	mv	s7,a2
    14b4:	00070913          	mv	s2,a4
    14b8:	00078413          	mv	s0,a5
    14bc:	530000ef          	jal	ra,19ec <strlen>
    14c0:	120a9463          	bnez	s5,15e8 <printstr+0x17c>
    14c4:	00050c13          	mv	s8,a0
    14c8:	000a0793          	mv	a5,s4
    14cc:	03254263          	blt	a0,s2,14f0 <printstr+0x84>
    14d0:	0500006f          	j	1520 <printstr+0xb4>
    14d4:	02000713          	li	a4,32
    14d8:	00e78023          	sb	a4,0(a5)
    14dc:	000c8793          	mv	a5,s9
    14e0:	0004a703          	lw	a4,0(s1)
    14e4:	00170713          	addi	a4,a4,1
    14e8:	00e4a023          	sw	a4,0(s1)
    14ec:	032c0a63          	beq	s8,s2,1520 <printstr+0xb4>
    14f0:	fff90913          	addi	s2,s2,-1
    14f4:	fe8056e3          	blez	s0,14e0 <printstr+0x74>
    14f8:	00178c93          	addi	s9,a5,1
    14fc:	fff40413          	addi	s0,s0,-1
    1500:	fc0b8ae3          	beqz	s7,14d4 <printstr+0x68>
    1504:	02000513          	li	a0,32
    1508:	dc8ff0ef          	jal	ra,ad0 <putch>
    150c:	0004a703          	lw	a4,0(s1)
    1510:	000c8793          	mv	a5,s9
    1514:	00170713          	addi	a4,a4,1
    1518:	00e4a023          	sw	a4,0(s1)
    151c:	fd2c1ae3          	bne	s8,s2,14f0 <printstr+0x84>
    1520:	000b4503          	lbu	a0,0(s6)
    1524:	08050063          	beqz	a0,15a4 <printstr+0x138>
    1528:	00805c63          	blez	s0,1540 <printstr+0xd4>
    152c:	00178c13          	addi	s8,a5,1
    1530:	fff40413          	addi	s0,s0,-1
    1534:	0a0b9463          	bnez	s7,15dc <printstr+0x170>
    1538:	00a78023          	sb	a0,0(a5)
    153c:	000c0793          	mv	a5,s8
    1540:	0004a883          	lw	a7,0(s1)
    1544:	001b0b13          	addi	s6,s6,1
    1548:	00188893          	addi	a7,a7,1
    154c:	0114a023          	sw	a7,0(s1)
    1550:	000b4503          	lbu	a0,0(s6)
    1554:	fc051ae3          	bnez	a0,1528 <printstr+0xbc>
    1558:	020a9063          	bnez	s5,1578 <printstr+0x10c>
    155c:	0480006f          	j	15a4 <printstr+0x138>
    1560:	02000713          	li	a4,32
    1564:	00e78023          	sb	a4,0(a5)
    1568:	0004a883          	lw	a7,0(s1)
    156c:	000a8793          	mv	a5,s5
    1570:	00188893          	addi	a7,a7,1
    1574:	0114a023          	sw	a7,0(s1)
    1578:	41388733          	sub	a4,a7,s3
    157c:	03275463          	bge	a4,s2,15a4 <printstr+0x138>
    1580:	fe8058e3          	blez	s0,1570 <printstr+0x104>
    1584:	00178a93          	addi	s5,a5,1
    1588:	fff40413          	addi	s0,s0,-1
    158c:	fc0b8ae3          	beqz	s7,1560 <printstr+0xf4>
    1590:	02000513          	li	a0,32
    1594:	d3cff0ef          	jal	ra,ad0 <putch>
    1598:	0004a883          	lw	a7,0(s1)
    159c:	000a8793          	mv	a5,s5
    15a0:	fd1ff06f          	j	1570 <printstr+0x104>
    15a4:	02c12083          	lw	ra,44(sp)
    15a8:	02812403          	lw	s0,40(sp)
    15ac:	02412483          	lw	s1,36(sp)
    15b0:	02012903          	lw	s2,32(sp)
    15b4:	01c12983          	lw	s3,28(sp)
    15b8:	01412a83          	lw	s5,20(sp)
    15bc:	01012b03          	lw	s6,16(sp)
    15c0:	00c12b83          	lw	s7,12(sp)
    15c4:	00812c03          	lw	s8,8(sp)
    15c8:	00412c83          	lw	s9,4(sp)
    15cc:	41478533          	sub	a0,a5,s4
    15d0:	01812a03          	lw	s4,24(sp)
    15d4:	03010113          	addi	sp,sp,48
    15d8:	00008067          	ret
    15dc:	cf4ff0ef          	jal	ra,ad0 <putch>
    15e0:	000c0793          	mv	a5,s8
    15e4:	f5dff06f          	j	1540 <printstr+0xd4>
    15e8:	000b4503          	lbu	a0,0(s6)
    15ec:	000a0793          	mv	a5,s4
    15f0:	f2051ce3          	bnez	a0,1528 <printstr+0xbc>
    15f4:	0004a883          	lw	a7,0(s1)
    15f8:	f81ff06f          	j	1578 <printstr+0x10c>

000015fc <printf>:
    15fc:	f9010113          	addi	sp,sp,-112
    1600:	03612823          	sw	s6,48(sp)
    1604:	06f12223          	sw	a5,100(sp)
    1608:	04112623          	sw	ra,76(sp)
    160c:	04812423          	sw	s0,72(sp)
    1610:	04912223          	sw	s1,68(sp)
    1614:	05212023          	sw	s2,64(sp)
    1618:	03312e23          	sw	s3,60(sp)
    161c:	03412c23          	sw	s4,56(sp)
    1620:	03512a23          	sw	s5,52(sp)
    1624:	03712623          	sw	s7,44(sp)
    1628:	03812423          	sw	s8,40(sp)
    162c:	03912223          	sw	s9,36(sp)
    1630:	03a12023          	sw	s10,32(sp)
    1634:	04b12a23          	sw	a1,84(sp)
    1638:	04c12c23          	sw	a2,88(sp)
    163c:	04d12e23          	sw	a3,92(sp)
    1640:	06e12023          	sw	a4,96(sp)
    1644:	07012423          	sw	a6,104(sp)
    1648:	07112623          	sw	a7,108(sp)
    164c:	00050b13          	mv	s6,a0
    1650:	00054503          	lbu	a0,0(a0)
    1654:	05410793          	addi	a5,sp,84
    1658:	00012c23          	sw	zero,24(sp)
    165c:	00f12e23          	sw	a5,28(sp)
    1660:	30050263          	beqz	a0,1964 <printf+0x368>
    1664:	10000937          	lui	s2,0x10000
    1668:	ffe90993          	addi	s3,s2,-2 # ffffffe <_end+0xfff1ffe>
    166c:	00000b93          	li	s7,0
    1670:	00000a13          	li	s4,0
    1674:	02000a93          	li	s5,32
    1678:	00000c13          	li	s8,0
    167c:	00000d13          	li	s10,0
    1680:	02500493          	li	s1,37
    1684:	03900413          	li	s0,57
    1688:	fff90913          	addi	s2,s2,-1
    168c:	00001c97          	auipc	s9,0x1
    1690:	888c8c93          	addi	s9,s9,-1912 # 1f14 <tests+0x2c>
    1694:	120c0a63          	beqz	s8,17c8 <printf+0x1cc>
    1698:	02a46863          	bltu	s0,a0,16c8 <printf+0xcc>
    169c:	02400793          	li	a5,36
    16a0:	1ca7fa63          	bgeu	a5,a0,1874 <printf+0x278>
    16a4:	fdb50793          	addi	a5,a0,-37
    16a8:	0ff7f793          	zext.b	a5,a5
    16ac:	01400713          	li	a4,20
    16b0:	1cf76263          	bltu	a4,a5,1874 <printf+0x278>
    16b4:	00279793          	slli	a5,a5,0x2
    16b8:	019787b3          	add	a5,a5,s9
    16bc:	0007a783          	lw	a5,0(a5)
    16c0:	019787b3          	add	a5,a5,s9
    16c4:	00078067          	jr	a5
    16c8:	07300793          	li	a5,115
    16cc:	20f50e63          	beq	a0,a5,18e8 <printf+0x2ec>
    16d0:	07800793          	li	a5,120
    16d4:	08f51a63          	bne	a0,a5,1768 <printf+0x16c>
    16d8:	01c12783          	lw	a5,28(sp)
    16dc:	41a90733          	sub	a4,s2,s10
    16e0:	000d0593          	mv	a1,s10
    16e4:	0007a503          	lw	a0,0(a5)
    16e8:	00478313          	addi	t1,a5,4
    16ec:	01810793          	addi	a5,sp,24
    16f0:	00f12223          	sw	a5,4(sp)
    16f4:	00e12023          	sw	a4,0(sp)
    16f8:	000a0793          	mv	a5,s4
    16fc:	000a8893          	mv	a7,s5
    1700:	000b8813          	mv	a6,s7
    1704:	00000713          	li	a4,0
    1708:	00100693          	li	a3,1
    170c:	01000613          	li	a2,16
    1710:	00612e23          	sw	t1,28(sp)
    1714:	b31ff0ef          	jal	ra,1244 <int2str>
    1718:	000b0793          	mv	a5,s6
    171c:	00ad0d33          	add	s10,s10,a0
    1720:	0017c503          	lbu	a0,1(a5)
    1724:	00178b13          	addi	s6,a5,1
    1728:	f60516e3          	bnez	a0,1694 <printf+0x98>
    172c:	01812503          	lw	a0,24(sp)
    1730:	04c12083          	lw	ra,76(sp)
    1734:	04812403          	lw	s0,72(sp)
    1738:	04412483          	lw	s1,68(sp)
    173c:	04012903          	lw	s2,64(sp)
    1740:	03c12983          	lw	s3,60(sp)
    1744:	03812a03          	lw	s4,56(sp)
    1748:	03412a83          	lw	s5,52(sp)
    174c:	03012b03          	lw	s6,48(sp)
    1750:	02c12b83          	lw	s7,44(sp)
    1754:	02812c03          	lw	s8,40(sp)
    1758:	02412c83          	lw	s9,36(sp)
    175c:	02012d03          	lw	s10,32(sp)
    1760:	07010113          	addi	sp,sp,112
    1764:	00008067          	ret
    1768:	06400793          	li	a5,100
    176c:	10f51463          	bne	a0,a5,1874 <printf+0x278>
    1770:	01c12783          	lw	a5,28(sp)
    1774:	41a90733          	sub	a4,s2,s10
    1778:	000d0593          	mv	a1,s10
    177c:	0007a503          	lw	a0,0(a5)
    1780:	00478313          	addi	t1,a5,4
    1784:	01810793          	addi	a5,sp,24
    1788:	00f12223          	sw	a5,4(sp)
    178c:	00e12023          	sw	a4,0(sp)
    1790:	000a0793          	mv	a5,s4
    1794:	000a8893          	mv	a7,s5
    1798:	000b8813          	mv	a6,s7
    179c:	00100713          	li	a4,1
    17a0:	00100693          	li	a3,1
    17a4:	00a00613          	li	a2,10
    17a8:	00612e23          	sw	t1,28(sp)
    17ac:	a99ff0ef          	jal	ra,1244 <int2str>
    17b0:	000b0793          	mv	a5,s6
    17b4:	00ad0d33          	add	s10,s10,a0
    17b8:	0017c503          	lbu	a0,1(a5)
    17bc:	00178b13          	addi	s6,a5,1
    17c0:	ec051ae3          	bnez	a0,1694 <printf+0x98>
    17c4:	f69ff06f          	j	172c <printf+0x130>
    17c8:	02950463          	beq	a0,s1,17f0 <printf+0x1f4>
    17cc:	03a9de63          	bge	s3,s10,1808 <printf+0x20c>
    17d0:	01812703          	lw	a4,24(sp)
    17d4:	000b0793          	mv	a5,s6
    17d8:	0017c503          	lbu	a0,1(a5)
    17dc:	00170713          	addi	a4,a4,1
    17e0:	00e12c23          	sw	a4,24(sp)
    17e4:	00178b13          	addi	s6,a5,1
    17e8:	ea0516e3          	bnez	a0,1694 <printf+0x98>
    17ec:	f41ff06f          	j	172c <printf+0x130>
    17f0:	000b0793          	mv	a5,s6
    17f4:	0017c503          	lbu	a0,1(a5)
    17f8:	00100c13          	li	s8,1
    17fc:	00178b13          	addi	s6,a5,1
    1800:	e8051ae3          	bnez	a0,1694 <printf+0x98>
    1804:	f29ff06f          	j	172c <printf+0x130>
    1808:	ac8ff0ef          	jal	ra,ad0 <putch>
    180c:	001d0d13          	addi	s10,s10,1
    1810:	fc1ff06f          	j	17d0 <printf+0x1d4>
    1814:	000b4603          	lbu	a2,0(s6)
    1818:	00900793          	li	a5,9
    181c:	fd060693          	addi	a3,a2,-48
    1820:	0ff6f713          	zext.b	a4,a3
    1824:	14e7e463          	bltu	a5,a4,196c <printf+0x370>
    1828:	000b0793          	mv	a5,s6
    182c:	00000b93          	li	s7,0
    1830:	00900593          	li	a1,9
    1834:	0017c603          	lbu	a2,1(a5)
    1838:	002b9713          	slli	a4,s7,0x2
    183c:	01770733          	add	a4,a4,s7
    1840:	00171713          	slli	a4,a4,0x1
    1844:	00d70bb3          	add	s7,a4,a3
    1848:	fd060693          	addi	a3,a2,-48
    184c:	0ff6f713          	zext.b	a4,a3
    1850:	00178793          	addi	a5,a5,1
    1854:	fee5f0e3          	bgeu	a1,a4,1834 <printf+0x238>
    1858:	416787b3          	sub	a5,a5,s6
    185c:	fff78793          	addi	a5,a5,-1
    1860:	00fb07b3          	add	a5,s6,a5
    1864:	0017c503          	lbu	a0,1(a5)
    1868:	00178b13          	addi	s6,a5,1
    186c:	e20514e3          	bnez	a0,1694 <printf+0x98>
    1870:	ebdff06f          	j	172c <printf+0x130>
    1874:	0da9d863          	bge	s3,s10,1944 <printf+0x348>
    1878:	01812703          	lw	a4,24(sp)
    187c:	000b0793          	mv	a5,s6
    1880:	0017c503          	lbu	a0,1(a5)
    1884:	00270713          	addi	a4,a4,2
    1888:	00e12c23          	sw	a4,24(sp)
    188c:	00178b13          	addi	s6,a5,1
    1890:	e00512e3          	bnez	a0,1694 <printf+0x98>
    1894:	e99ff06f          	j	172c <printf+0x130>
    1898:	01c12703          	lw	a4,28(sp)
    189c:	000b0793          	mv	a5,s6
    18a0:	0017c503          	lbu	a0,1(a5)
    18a4:	00470693          	addi	a3,a4,4
    18a8:	00d12e23          	sw	a3,28(sp)
    18ac:	00072b83          	lw	s7,0(a4)
    18b0:	00178b13          	addi	s6,a5,1
    18b4:	de0510e3          	bnez	a0,1694 <printf+0x98>
    18b8:	e75ff06f          	j	172c <printf+0x130>
    18bc:	f1a9cae3          	blt	s3,s10,17d0 <printf+0x1d4>
    18c0:	02500513          	li	a0,37
    18c4:	a0cff0ef          	jal	ra,ad0 <putch>
    18c8:	001d0d13          	addi	s10,s10,1
    18cc:	f05ff06f          	j	17d0 <printf+0x1d4>
    18d0:	000b0793          	mv	a5,s6
    18d4:	0017c503          	lbu	a0,1(a5)
    18d8:	00100a13          	li	s4,1
    18dc:	00178b13          	addi	s6,a5,1
    18e0:	da051ae3          	bnez	a0,1694 <printf+0x98>
    18e4:	e49ff06f          	j	172c <printf+0x130>
    18e8:	01c12703          	lw	a4,28(sp)
    18ec:	41a907b3          	sub	a5,s2,s10
    18f0:	000d0593          	mv	a1,s10
    18f4:	00072503          	lw	a0,0(a4)
    18f8:	00470893          	addi	a7,a4,4
    18fc:	01810813          	addi	a6,sp,24
    1900:	000b8713          	mv	a4,s7
    1904:	000a0693          	mv	a3,s4
    1908:	00100613          	li	a2,1
    190c:	01112e23          	sw	a7,28(sp)
    1910:	b5dff0ef          	jal	ra,146c <printstr>
    1914:	000b0793          	mv	a5,s6
    1918:	00ad0d33          	add	s10,s10,a0
    191c:	0017c503          	lbu	a0,1(a5)
    1920:	00178b13          	addi	s6,a5,1
    1924:	d60518e3          	bnez	a0,1694 <printf+0x98>
    1928:	e05ff06f          	j	172c <printf+0x130>
    192c:	000b0793          	mv	a5,s6
    1930:	00050a93          	mv	s5,a0
    1934:	0017c503          	lbu	a0,1(a5)
    1938:	00178b13          	addi	s6,a5,1
    193c:	d4051ce3          	bnez	a0,1694 <printf+0x98>
    1940:	dedff06f          	j	172c <printf+0x130>
    1944:	02500513          	li	a0,37
    1948:	988ff0ef          	jal	ra,ad0 <putch>
    194c:	001d0793          	addi	a5,s10,1
    1950:	02f9c663          	blt	s3,a5,197c <printf+0x380>
    1954:	000b4503          	lbu	a0,0(s6)
    1958:	002d0d13          	addi	s10,s10,2
    195c:	974ff0ef          	jal	ra,ad0 <putch>
    1960:	f19ff06f          	j	1878 <printf+0x27c>
    1964:	00000513          	li	a0,0
    1968:	dc9ff06f          	j	1730 <printf+0x134>
    196c:	fff00793          	li	a5,-1
    1970:	00000b93          	li	s7,0
    1974:	00fb07b3          	add	a5,s6,a5
    1978:	eedff06f          	j	1864 <printf+0x268>
    197c:	00078d13          	mv	s10,a5
    1980:	ef9ff06f          	j	1878 <printf+0x27c>

00001984 <umodsi3>:
    1984:	04a5fe63          	bgeu	a1,a0,19e0 <umodsi3+0x5c>
    1988:	0405cc63          	bltz	a1,19e0 <umodsi3+0x5c>
    198c:	02000713          	li	a4,32
    1990:	00100793          	li	a5,1
    1994:	00c0006f          	j	19a0 <umodsi3+0x1c>
    1998:	04070063          	beqz	a4,19d8 <umodsi3+0x54>
    199c:	0005cc63          	bltz	a1,19b4 <umodsi3+0x30>
    19a0:	00159593          	slli	a1,a1,0x1
    19a4:	fff70713          	addi	a4,a4,-1
    19a8:	00179793          	slli	a5,a5,0x1
    19ac:	fea5e6e3          	bltu	a1,a0,1998 <umodsi3+0x14>
    19b0:	02078463          	beqz	a5,19d8 <umodsi3+0x54>
    19b4:	00000713          	li	a4,0
    19b8:	00b56663          	bltu	a0,a1,19c4 <umodsi3+0x40>
    19bc:	40b50533          	sub	a0,a0,a1
    19c0:	00f76733          	or	a4,a4,a5
    19c4:	0017d793          	srli	a5,a5,0x1
    19c8:	0015d593          	srli	a1,a1,0x1
    19cc:	fe0796e3          	bnez	a5,19b8 <umodsi3+0x34>
    19d0:	00070593          	mv	a1,a4
    19d4:	00008067          	ret
    19d8:	00000593          	li	a1,0
    19dc:	00008067          	ret
    19e0:	00100793          	li	a5,1
    19e4:	00000713          	li	a4,0
    19e8:	fd1ff06f          	j	19b8 <umodsi3+0x34>

000019ec <strlen>:
    19ec:	00054783          	lbu	a5,0(a0)
    19f0:	00050713          	mv	a4,a0
    19f4:	00000513          	li	a0,0
    19f8:	00078c63          	beqz	a5,1a10 <strlen+0x24>
    19fc:	00150513          	addi	a0,a0,1
    1a00:	00a707b3          	add	a5,a4,a0
    1a04:	0007c783          	lbu	a5,0(a5)
    1a08:	fe079ae3          	bnez	a5,19fc <strlen+0x10>
    1a0c:	00008067          	ret
    1a10:	00008067          	ret
