
/home/wzr/NJU/DigitalDesign-AM/CS-AM/am-kernels/tests/am-tests/build/amtest-riscv32-nemu.elf:     file format elf32-littleriscv


Disassembly of section .text:

00000000 <_start>:
       0:	00000413          	li	s0,0
       4:	00007117          	auipc	sp,0x7
       8:	bfc10113          	addi	sp,sp,-1028 # 6c00 <_end>
       c:	36d000ef          	jal	ra,b78 <_trm_init>

00000010 <hello>:
      10:	ff010113          	addi	sp,sp,-16
      14:	00912223          	sw	s1,4(sp)
      18:	00112623          	sw	ra,12(sp)
      1c:	00812423          	sw	s0,8(sp)
      20:	00a00493          	li	s1,10
      24:	00002417          	auipc	s0,0x2
      28:	9ec40413          	addi	s0,s0,-1556 # 1a10 <_etext>
      2c:	04800513          	li	a0,72
      30:	00140413          	addi	s0,s0,1
      34:	285000ef          	jal	ra,ab8 <putch>
      38:	00044503          	lbu	a0,0(s0)
      3c:	fe051ae3          	bnez	a0,30 <hello+0x20>
      40:	fff48493          	addi	s1,s1,-1
      44:	fe0490e3          	bnez	s1,24 <hello+0x14>
      48:	00c12083          	lw	ra,12(sp)
      4c:	00812403          	lw	s0,8(sp)
      50:	00412483          	lw	s1,4(sp)
      54:	01010113          	addi	sp,sp,16
      58:	00008067          	ret

0000005c <coltxt>:
      5c:	00002797          	auipc	a5,0x2
      60:	9d078793          	addi	a5,a5,-1584 # 1a2c <_etext+0x1c>
      64:	0007a803          	lw	a6,0(a5)
      68:	0047a603          	lw	a2,4(a5)
      6c:	0087a683          	lw	a3,8(a5)
      70:	00c7a703          	lw	a4,12(a5)
      74:	0107a783          	lw	a5,16(a5)
      78:	fc010113          	addi	sp,sp,-64
      7c:	02912a23          	sw	s1,52(sp)
      80:	02f12623          	sw	a5,44(sp)
      84:	00002497          	auipc	s1,0x2
      88:	f6548493          	addi	s1,s1,-155 # 1fe9 <serialcol>
      8c:	06700793          	li	a5,103
      90:	02812c23          	sw	s0,56(sp)
      94:	00c10593          	addi	a1,sp,12
      98:	01300413          	li	s0,19
      9c:	00f48023          	sb	a5,0(s1)
      a0:	01100513          	li	a0,17
      a4:	01c10793          	addi	a5,sp,28
      a8:	02112e23          	sw	ra,60(sp)
      ac:	01012e23          	sw	a6,28(sp)
      b0:	02c12023          	sw	a2,32(sp)
      b4:	02d12223          	sw	a3,36(sp)
      b8:	02e12423          	sw	a4,40(sp)
      bc:	00f12a23          	sw	a5,20(sp)
      c0:	00812c23          	sw	s0,24(sp)
      c4:	00012623          	sw	zero,12(sp)
      c8:	00012823          	sw	zero,16(sp)
      cc:	2fd000ef          	jal	ra,bc8 <ioe_write>
      d0:	04300793          	li	a5,67
      d4:	00f48023          	sb	a5,0(s1)
      d8:	00100793          	li	a5,1
      dc:	00c10593          	addi	a1,sp,12
      e0:	00f12823          	sw	a5,16(sp)
      e4:	01100513          	li	a0,17
      e8:	01c10793          	addi	a5,sp,28
      ec:	00f12a23          	sw	a5,20(sp)
      f0:	00812c23          	sw	s0,24(sp)
      f4:	00012623          	sw	zero,12(sp)
      f8:	2d1000ef          	jal	ra,bc8 <ioe_write>
      fc:	05000793          	li	a5,80
     100:	00f48023          	sb	a5,0(s1)
     104:	00200793          	li	a5,2
     108:	00c10593          	addi	a1,sp,12
     10c:	00f12823          	sw	a5,16(sp)
     110:	01100513          	li	a0,17
     114:	01c10793          	addi	a5,sp,28
     118:	00f12a23          	sw	a5,20(sp)
     11c:	00812c23          	sw	s0,24(sp)
     120:	00012623          	sw	zero,12(sp)
     124:	2a5000ef          	jal	ra,bc8 <ioe_write>
     128:	02700793          	li	a5,39
     12c:	00f48023          	sb	a5,0(s1)
     130:	00300793          	li	a5,3
     134:	00c10593          	addi	a1,sp,12
     138:	00f12823          	sw	a5,16(sp)
     13c:	01100513          	li	a0,17
     140:	01c10793          	addi	a5,sp,28
     144:	00f12a23          	sw	a5,20(sp)
     148:	00812c23          	sw	s0,24(sp)
     14c:	00012623          	sw	zero,12(sp)
     150:	279000ef          	jal	ra,bc8 <ioe_write>
     154:	00400793          	li	a5,4
     158:	00f12823          	sw	a5,16(sp)
     15c:	00c10593          	addi	a1,sp,12
     160:	01c10793          	addi	a5,sp,28
     164:	01100513          	li	a0,17
     168:	00848023          	sb	s0,0(s1)
     16c:	00812c23          	sw	s0,24(sp)
     170:	00012623          	sw	zero,12(sp)
     174:	00f12a23          	sw	a5,20(sp)
     178:	251000ef          	jal	ra,bc8 <ioe_write>
     17c:	03c12083          	lw	ra,60(sp)
     180:	03812403          	lw	s0,56(sp)
     184:	03412483          	lw	s1,52(sp)
     188:	04010113          	addi	sp,sp,64
     18c:	00008067          	ret

00000190 <rtc_test>:
     190:	fd010113          	addi	sp,sp,-48
     194:	03212023          	sw	s2,32(sp)
     198:	000f4937          	lui	s2,0xf4
     19c:	02812423          	sw	s0,40(sp)
     1a0:	02912223          	sw	s1,36(sp)
     1a4:	01312e23          	sw	s3,28(sp)
     1a8:	01412c23          	sw	s4,24(sp)
     1ac:	01512a23          	sw	s5,20(sp)
     1b0:	01612823          	sw	s6,16(sp)
     1b4:	02112623          	sw	ra,44(sp)
     1b8:	00100493          	li	s1,1
     1bc:	00000413          	li	s0,0
     1c0:	24090913          	addi	s2,s2,576 # f4240 <_end+0xed640>
     1c4:	00000993          	li	s3,0
     1c8:	00100a93          	li	s5,1
     1cc:	00002b17          	auipc	s6,0x2
     1d0:	880b0b13          	addi	s6,s6,-1920 # 1a4c <_etext+0x3c>
     1d4:	00002a17          	auipc	s4,0x2
     1d8:	86ca0a13          	addi	s4,s4,-1940 # 1a40 <_etext+0x30>
     1dc:	00810593          	addi	a1,sp,8
     1e0:	00600513          	li	a0,6
     1e4:	1c9000ef          	jal	ra,bac <ioe_read>
     1e8:	00812503          	lw	a0,8(sp)
     1ec:	00c12583          	lw	a1,12(sp)
     1f0:	00090613          	mv	a2,s2
     1f4:	00098693          	mv	a3,s3
     1f8:	721000ef          	jal	ra,1118 <__udivdi3>
     1fc:	fe85e0e3          	bltu	a1,s0,1dc <rtc_test+0x4c>
     200:	00b41463          	bne	s0,a1,208 <rtc_test+0x78>
     204:	fc956ce3          	bltu	a0,s1,1dc <rtc_test+0x4c>
     208:	00100593          	li	a1,1
     20c:	000a0513          	mv	a0,s4
     210:	01548663          	beq	s1,s5,21c <rtc_test+0x8c>
     214:	00048593          	mv	a1,s1
     218:	000b0513          	mv	a0,s6
     21c:	3c8010ef          	jal	ra,15e4 <printf>
     220:	00148793          	addi	a5,s1,1
     224:	0097b4b3          	sltu	s1,a5,s1
     228:	00848433          	add	s0,s1,s0
     22c:	00078493          	mv	s1,a5
     230:	fadff06f          	j	1dc <rtc_test+0x4c>

00000234 <board_io_port>:
     234:	fb010113          	addi	sp,sp,-80
     238:	03612823          	sw	s6,48(sp)
     23c:	00002517          	auipc	a0,0x2
     240:	82050513          	addi	a0,a0,-2016 # 1a5c <_etext+0x4c>
     244:	000f4b37          	lui	s6,0xf4
     248:	04812423          	sw	s0,72(sp)
     24c:	04912223          	sw	s1,68(sp)
     250:	05212023          	sw	s2,64(sp)
     254:	03312e23          	sw	s3,60(sp)
     258:	03412c23          	sw	s4,56(sp)
     25c:	03712623          	sw	s7,44(sp)
     260:	03812423          	sw	s8,40(sp)
     264:	03912223          	sw	s9,36(sp)
     268:	03a12023          	sw	s10,32(sp)
     26c:	01b12e23          	sw	s11,28(sp)
     270:	04112623          	sw	ra,76(sp)
     274:	03512a23          	sw	s5,52(sp)
     278:	00100a13          	li	s4,1
     27c:	368010ef          	jal	ra,15e4 <printf>
     280:	00000913          	li	s2,0
     284:	00000413          	li	s0,0
     288:	00000993          	li	s3,0
     28c:	00f00c13          	li	s8,15
     290:	00002497          	auipc	s1,0x2
     294:	d5048493          	addi	s1,s1,-688 # 1fe0 <njuid>
     298:	00100c93          	li	s9,1
     29c:	00700d93          	li	s11,7
     2a0:	00600d13          	li	s10,6
     2a4:	240b0b13          	addi	s6,s6,576 # f4240 <_end+0xed640>
     2a8:	00000b93          	li	s7,0
     2ac:	04c0006f          	j	2f8 <board_io_port+0xc4>
     2b0:	000c0413          	mv	s0,s8
     2b4:	00810593          	addi	a1,sp,8
     2b8:	00600513          	li	a0,6
     2bc:	0f1000ef          	jal	ra,bac <ioe_read>
     2c0:	00812503          	lw	a0,8(sp)
     2c4:	00c12583          	lw	a1,12(sp)
     2c8:	000b0613          	mv	a2,s6
     2cc:	000b8693          	mv	a3,s7
     2d0:	649000ef          	jal	ra,1118 <__udivdi3>
     2d4:	ff25e0e3          	bltu	a1,s2,2b4 <board_io_port+0x80>
     2d8:	00b91463          	bne	s2,a1,2e0 <board_io_port+0xac>
     2dc:	fd456ce3          	bltu	a0,s4,2b4 <board_io_port+0x80>
     2e0:	001a0793          	addi	a5,s4,1
     2e4:	0147b733          	sltu	a4,a5,s4
     2e8:	00098c13          	mv	s8,s3
     2ec:	00078a13          	mv	s4,a5
     2f0:	01270933          	add	s2,a4,s2
     2f4:	000a8993          	mv	s3,s5
     2f8:	00810593          	addi	a1,sp,8
     2fc:	00e00513          	li	a0,14
     300:	01312423          	sw	s3,8(sp)
     304:	01910623          	sb	s9,12(sp)
     308:	0c1000ef          	jal	ra,bc8 <ioe_write>
     30c:	00810593          	addi	a1,sp,8
     310:	00e00513          	li	a0,14
     314:	01812423          	sw	s8,8(sp)
     318:	00010623          	sb	zero,12(sp)
     31c:	0ad000ef          	jal	ra,bc8 <ioe_write>
     320:	008487b3          	add	a5,s1,s0
     324:	0007c783          	lbu	a5,0(a5)
     328:	00810593          	addi	a1,sp,8
     32c:	00f00513          	li	a0,15
     330:	00f10623          	sb	a5,12(sp)
     334:	01b12423          	sw	s11,8(sp)
     338:	00140c13          	addi	s8,s0,1
     33c:	08d000ef          	jal	ra,bc8 <ioe_write>
     340:	00900593          	li	a1,9
     344:	000c0513          	mv	a0,s8
     348:	01a12423          	sw	s10,8(sp)
     34c:	5e0010ef          	jal	ra,192c <modu>
     350:	00a48533          	add	a0,s1,a0
     354:	00054783          	lbu	a5,0(a0)
     358:	00810593          	addi	a1,sp,8
     35c:	00f00513          	li	a0,15
     360:	00f10623          	sb	a5,12(sp)
     364:	065000ef          	jal	ra,bc8 <ioe_write>
     368:	00500793          	li	a5,5
     36c:	00900593          	li	a1,9
     370:	00240513          	addi	a0,s0,2
     374:	00f12423          	sw	a5,8(sp)
     378:	5b4010ef          	jal	ra,192c <modu>
     37c:	00a48533          	add	a0,s1,a0
     380:	00054783          	lbu	a5,0(a0)
     384:	00810593          	addi	a1,sp,8
     388:	00f00513          	li	a0,15
     38c:	00f10623          	sb	a5,12(sp)
     390:	039000ef          	jal	ra,bc8 <ioe_write>
     394:	00400793          	li	a5,4
     398:	00900593          	li	a1,9
     39c:	00340513          	addi	a0,s0,3
     3a0:	00f12423          	sw	a5,8(sp)
     3a4:	588010ef          	jal	ra,192c <modu>
     3a8:	00a48533          	add	a0,s1,a0
     3ac:	00054783          	lbu	a5,0(a0)
     3b0:	00810593          	addi	a1,sp,8
     3b4:	00f00513          	li	a0,15
     3b8:	00f10623          	sb	a5,12(sp)
     3bc:	00d000ef          	jal	ra,bc8 <ioe_write>
     3c0:	00300793          	li	a5,3
     3c4:	00900593          	li	a1,9
     3c8:	00440513          	addi	a0,s0,4
     3cc:	00f12423          	sw	a5,8(sp)
     3d0:	55c010ef          	jal	ra,192c <modu>
     3d4:	00a48533          	add	a0,s1,a0
     3d8:	00054783          	lbu	a5,0(a0)
     3dc:	00810593          	addi	a1,sp,8
     3e0:	00f00513          	li	a0,15
     3e4:	00f10623          	sb	a5,12(sp)
     3e8:	7e0000ef          	jal	ra,bc8 <ioe_write>
     3ec:	00200793          	li	a5,2
     3f0:	00900593          	li	a1,9
     3f4:	00540513          	addi	a0,s0,5
     3f8:	00f12423          	sw	a5,8(sp)
     3fc:	530010ef          	jal	ra,192c <modu>
     400:	00a48533          	add	a0,s1,a0
     404:	00054783          	lbu	a5,0(a0)
     408:	00810593          	addi	a1,sp,8
     40c:	00f00513          	li	a0,15
     410:	00f10623          	sb	a5,12(sp)
     414:	7b4000ef          	jal	ra,bc8 <ioe_write>
     418:	00900593          	li	a1,9
     41c:	00640513          	addi	a0,s0,6
     420:	01912423          	sw	s9,8(sp)
     424:	508010ef          	jal	ra,192c <modu>
     428:	00a48533          	add	a0,s1,a0
     42c:	00054783          	lbu	a5,0(a0)
     430:	00810593          	addi	a1,sp,8
     434:	00f00513          	li	a0,15
     438:	00f10623          	sb	a5,12(sp)
     43c:	78c000ef          	jal	ra,bc8 <ioe_write>
     440:	00900593          	li	a1,9
     444:	00740513          	addi	a0,s0,7
     448:	00012423          	sw	zero,8(sp)
     44c:	4e0010ef          	jal	ra,192c <modu>
     450:	00a48533          	add	a0,s1,a0
     454:	00054783          	lbu	a5,0(a0)
     458:	00810593          	addi	a1,sp,8
     45c:	00f00513          	li	a0,15
     460:	00f10623          	sb	a5,12(sp)
     464:	764000ef          	jal	ra,bc8 <ioe_write>
     468:	00f00793          	li	a5,15
     46c:	00000a93          	li	s5,0
     470:	00f98463          	beq	s3,a5,478 <board_io_port+0x244>
     474:	00198a93          	addi	s5,s3,1
     478:	00800793          	li	a5,8
     47c:	e2f41ae3          	bne	s0,a5,2b0 <board_io_port+0x7c>
     480:	00000413          	li	s0,0
     484:	e31ff06f          	j	2b4 <board_io_port+0x80>

00000488 <redraw>:
     488:	fb010113          	addi	sp,sp,-80
     48c:	04812423          	sw	s0,72(sp)
     490:	03312e23          	sw	s3,60(sp)
     494:	03412c23          	sw	s4,56(sp)
     498:	03512a23          	sw	s5,52(sp)
     49c:	03612823          	sw	s6,48(sp)
     4a0:	03712623          	sw	s7,44(sp)
     4a4:	03812423          	sw	s8,40(sp)
     4a8:	03912223          	sw	s9,36(sp)
     4ac:	04112623          	sw	ra,76(sp)
     4b0:	04912223          	sw	s1,68(sp)
     4b4:	05212023          	sw	s2,64(sp)
     4b8:	00002c17          	auipc	s8,0x2
     4bc:	d34c0c13          	addi	s8,s8,-716 # 21ec <canvas>
     4c0:	00003c97          	auipc	s9,0x3
     4c4:	d2cc8c93          	addi	s9,s9,-724 # 31ec <color_buf>
     4c8:	00000993          	li	s3,0
     4cc:	00003b97          	auipc	s7,0x3
     4d0:	d20b8b93          	addi	s7,s7,-736 # 31ec <color_buf>
     4d4:	00003417          	auipc	s0,0x3
     4d8:	1c840413          	addi	s0,s0,456 # 369c <color_buf+0x4b0>
     4dc:	01400b13          	li	s6,20
     4e0:	00f00a93          	li	s5,15
     4e4:	28000a13          	li	s4,640
     4e8:	000c0913          	mv	s2,s8
     4ec:	00000493          	li	s1,0
     4f0:	00092703          	lw	a4,0(s2)
     4f4:	00003797          	auipc	a5,0x3
     4f8:	cf878793          	addi	a5,a5,-776 # 31ec <color_buf>
     4fc:	00e7a023          	sw	a4,0(a5)
     500:	00478793          	addi	a5,a5,4
     504:	fe879ce3          	bne	a5,s0,4fc <redraw+0x74>
     508:	00912423          	sw	s1,8(sp)
     50c:	00810593          	addi	a1,sp,8
     510:	01448493          	addi	s1,s1,20
     514:	00b00513          	li	a0,11
     518:	01312623          	sw	s3,12(sp)
     51c:	01712823          	sw	s7,16(sp)
     520:	01612a23          	sw	s6,20(sp)
     524:	01512c23          	sw	s5,24(sp)
     528:	00010e23          	sb	zero,28(sp)
     52c:	00490913          	addi	s2,s2,4
     530:	698000ef          	jal	ra,bc8 <ioe_write>
     534:	fb449ee3          	bne	s1,s4,4f0 <redraw+0x68>
     538:	080c0c13          	addi	s8,s8,128
     53c:	00f98993          	addi	s3,s3,15
     540:	fb9c14e3          	bne	s8,s9,4e8 <redraw+0x60>
     544:	00810593          	addi	a1,sp,8
     548:	00100793          	li	a5,1
     54c:	00b00513          	li	a0,11
     550:	00012423          	sw	zero,8(sp)
     554:	00012623          	sw	zero,12(sp)
     558:	00012823          	sw	zero,16(sp)
     55c:	00012a23          	sw	zero,20(sp)
     560:	00012c23          	sw	zero,24(sp)
     564:	00f10e23          	sb	a5,28(sp)
     568:	660000ef          	jal	ra,bc8 <ioe_write>
     56c:	04c12083          	lw	ra,76(sp)
     570:	04812403          	lw	s0,72(sp)
     574:	04412483          	lw	s1,68(sp)
     578:	04012903          	lw	s2,64(sp)
     57c:	03c12983          	lw	s3,60(sp)
     580:	03812a03          	lw	s4,56(sp)
     584:	03412a83          	lw	s5,52(sp)
     588:	03012b03          	lw	s6,48(sp)
     58c:	02c12b83          	lw	s7,44(sp)
     590:	02812c03          	lw	s8,40(sp)
     594:	02412c83          	lw	s9,36(sp)
     598:	05010113          	addi	sp,sp,80
     59c:	00008067          	ret

000005a0 <update>:
     5a0:	00005797          	auipc	a5,0x5
     5a4:	64c78793          	addi	a5,a5,1612 # 5bec <tsc.2>
     5a8:	0007a383          	lw	t2,0(a5)
     5ac:	ff010113          	addi	sp,sp,-16
     5b0:	00812623          	sw	s0,12(sp)
     5b4:	00912423          	sw	s1,8(sp)
     5b8:	01212223          	sw	s2,4(sp)
     5bc:	01312023          	sw	s3,0(sp)
     5c0:	00138393          	addi	t2,t2,1
     5c4:	00004717          	auipc	a4,0x4
     5c8:	ca870713          	addi	a4,a4,-856 # 426c <used+0x80>
     5cc:	00005697          	auipc	a3,0x5
     5d0:	ca068693          	addi	a3,a3,-864 # 526c <space+0x80>
     5d4:	0077a023          	sw	t2,0(a5)
     5d8:	f8070793          	addi	a5,a4,-128
     5dc:	0007a023          	sw	zero,0(a5)
     5e0:	00478793          	addi	a5,a5,4
     5e4:	fef71ce3          	bne	a4,a5,5dc <update+0x3c>
     5e8:	08070713          	addi	a4,a4,128
     5ec:	fed716e3          	bne	a4,a3,5d8 <update+0x38>
     5f0:	0ff3f693          	zext.b	a3,t2
     5f4:	00169793          	slli	a5,a3,0x1
     5f8:	00f687b3          	add	a5,a3,a5
     5fc:	00369713          	slli	a4,a3,0x3
     600:	00179793          	slli	a5,a5,0x1
     604:	40d70733          	sub	a4,a4,a3
     608:	0ff7f793          	zext.b	a5,a5
     60c:	0ff77713          	zext.b	a4,a4
     610:	00871713          	slli	a4,a4,0x8
     614:	01079793          	slli	a5,a5,0x10
     618:	00e7e7b3          	or	a5,a5,a4
     61c:	0ff3f713          	zext.b	a4,t2
     620:	00e7e7b3          	or	a5,a5,a4
     624:	00002417          	auipc	s0,0x2
     628:	bc840413          	addi	s0,s0,-1080 # 21ec <canvas>
     62c:	00004e97          	auipc	t4,0x4
     630:	bc0e8e93          	addi	t4,t4,-1088 # 41ec <used>
     634:	00f42023          	sw	a5,0(s0)
     638:	00100793          	li	a5,1
     63c:	00fea023          	sw	a5,0(t4)
     640:	00100713          	li	a4,1
     644:	00000793          	li	a5,0
     648:	00100f93          	li	t6,1
     64c:	00000593          	li	a1,0
     650:	00000913          	li	s2,0
     654:	00000e13          	li	t3,0
     658:	01f00f13          	li	t5,31
     65c:	00001317          	auipc	t1,0x1
     660:	41c30313          	addi	t1,t1,1052 # 1a78 <dx.1>
     664:	00001897          	auipc	a7,0x1
     668:	42488893          	addi	a7,a7,1060 # 1a88 <dy.0>
     66c:	00100493          	li	s1,1
     670:	40000293          	li	t0,1024
     674:	00400693          	li	a3,4
     678:	00fe0633          	add	a2,t3,a5
     67c:	00e90733          	add	a4,s2,a4
     680:	00561793          	slli	a5,a2,0x5
     684:	00e787b3          	add	a5,a5,a4
     688:	00279793          	slli	a5,a5,0x2
     68c:	00e66533          	or	a0,a2,a4
     690:	00fe89b3          	add	s3,t4,a5
     694:	00158813          	addi	a6,a1,1
     698:	fff68693          	addi	a3,a3,-1
     69c:	00af6663          	bltu	t5,a0,6a8 <update+0x108>
     6a0:	0009a503          	lw	a0,0(s3)
     6a4:	02050263          	beqz	a0,6c8 <update+0x128>
     6a8:	00387593          	andi	a1,a6,3
     6ac:	00259793          	slli	a5,a1,0x2
     6b0:	00f30633          	add	a2,t1,a5
     6b4:	00f88733          	add	a4,a7,a5
     6b8:	06068063          	beqz	a3,718 <update+0x178>
     6bc:	00062783          	lw	a5,0(a2)
     6c0:	00072703          	lw	a4,0(a4)
     6c4:	fb5ff06f          	j	678 <update+0xd8>
     6c8:	401fd813          	srai	a6,t6,0x1
     6cc:	00780833          	add	a6,a6,t2
     6d0:	0ff87e13          	zext.b	t3,a6
     6d4:	001e1513          	slli	a0,t3,0x1
     6d8:	00ae0533          	add	a0,t3,a0
     6dc:	003e1693          	slli	a3,t3,0x3
     6e0:	41c686b3          	sub	a3,a3,t3
     6e4:	00151513          	slli	a0,a0,0x1
     6e8:	0ff57513          	zext.b	a0,a0
     6ec:	0ff6f693          	zext.b	a3,a3
     6f0:	00869693          	slli	a3,a3,0x8
     6f4:	01051513          	slli	a0,a0,0x10
     6f8:	00d56533          	or	a0,a0,a3
     6fc:	0ff87813          	zext.b	a6,a6
     700:	00f406b3          	add	a3,s0,a5
     704:	010567b3          	or	a5,a0,a6
     708:	0099a023          	sw	s1,0(s3)
     70c:	00f6a023          	sw	a5,0(a3)
     710:	00070913          	mv	s2,a4
     714:	00060e13          	mv	t3,a2
     718:	001f8f93          	addi	t6,t6,1
     71c:	005f8e63          	beq	t6,t0,738 <update+0x198>
     720:	00259793          	slli	a5,a1,0x2
     724:	00f88733          	add	a4,a7,a5
     728:	00f306b3          	add	a3,t1,a5
     72c:	0006a783          	lw	a5,0(a3)
     730:	00072703          	lw	a4,0(a4)
     734:	f41ff06f          	j	674 <update+0xd4>
     738:	00c12403          	lw	s0,12(sp)
     73c:	00812483          	lw	s1,8(sp)
     740:	00412903          	lw	s2,4(sp)
     744:	00012983          	lw	s3,0(sp)
     748:	01010113          	addi	sp,sp,16
     74c:	00008067          	ret

00000750 <video_test>:
     750:	fe010113          	addi	sp,sp,-32
     754:	00912a23          	sw	s1,20(sp)
     758:	01212823          	sw	s2,16(sp)
     75c:	00112e23          	sw	ra,28(sp)
     760:	00812c23          	sw	s0,24(sp)
     764:	00000493          	li	s1,0
     768:	02100913          	li	s2,33
     76c:	00810593          	addi	a1,sp,8
     770:	00600513          	li	a0,6
     774:	438000ef          	jal	ra,bac <ioe_read>
     778:	00812503          	lw	a0,8(sp)
     77c:	00c12583          	lw	a1,12(sp)
     780:	3e800613          	li	a2,1000
     784:	00000693          	li	a3,0
     788:	191000ef          	jal	ra,1118 <__udivdi3>
     78c:	409507b3          	sub	a5,a0,s1
     790:	00050413          	mv	s0,a0
     794:	fcf97ce3          	bgeu	s2,a5,76c <video_test+0x1c>
     798:	e09ff0ef          	jal	ra,5a0 <update>
     79c:	00040493          	mv	s1,s0
     7a0:	ce9ff0ef          	jal	ra,488 <redraw>
     7a4:	fc9ff06f          	j	76c <video_test+0x1c>

000007a8 <keyboard_test>:
     7a8:	fd010113          	addi	sp,sp,-48
     7ac:	00001517          	auipc	a0,0x1
     7b0:	2ec50513          	addi	a0,a0,748 # 1a98 <dy.0+0x10>
     7b4:	02812423          	sw	s0,40(sp)
     7b8:	02912223          	sw	s1,36(sp)
     7bc:	03212023          	sw	s2,32(sp)
     7c0:	01312e23          	sw	s3,28(sp)
     7c4:	01412c23          	sw	s4,24(sp)
     7c8:	02112623          	sw	ra,44(sp)
     7cc:	619000ef          	jal	ra,15e4 <printf>
     7d0:	00005a17          	auipc	s4,0x5
     7d4:	420a0a13          	addi	s4,s4,1056 # 5bf0 <has_kbd>
     7d8:	00100793          	li	a5,1
     7dc:	00fa0023          	sb	a5,0(s4)
     7e0:	00001497          	auipc	s1,0x1
     7e4:	4b048493          	addi	s1,s1,1200 # 1c90 <names>
     7e8:	00001917          	auipc	s2,0x1
     7ec:	4a090913          	addi	s2,s2,1184 # 1c88 <dy.0+0x200>
     7f0:	00001997          	auipc	s3,0x1
     7f4:	49098993          	addi	s3,s3,1168 # 1c80 <dy.0+0x1f8>
     7f8:	00001417          	auipc	s0,0x1
     7fc:	2cc40413          	addi	s0,s0,716 # 1ac4 <dy.0+0x3c>
     800:	00079e63          	bnez	a5,81c <keyboard_test+0x74>
     804:	0000006f          	j	804 <keyboard_test+0x5c>
     808:	0007a583          	lw	a1,0(a5)
     80c:	00090693          	mv	a3,s2
     810:	00071463          	bnez	a4,818 <keyboard_test+0x70>
     814:	00098693          	mv	a3,s3
     818:	5cd000ef          	jal	ra,15e4 <printf>
     81c:	00800513          	li	a0,8
     820:	00810593          	addi	a1,sp,8
     824:	388000ef          	jal	ra,bac <ioe_read>
     828:	00c12603          	lw	a2,12(sp)
     82c:	00814703          	lbu	a4,8(sp)
     830:	00040513          	mv	a0,s0
     834:	00261793          	slli	a5,a2,0x2
     838:	00f487b3          	add	a5,s1,a5
     83c:	fc0616e3          	bnez	a2,808 <keyboard_test+0x60>
     840:	000a4783          	lbu	a5,0(s4)
     844:	fc079ce3          	bnez	a5,81c <keyboard_test+0x74>
     848:	fbdff06f          	j	804 <keyboard_test+0x5c>

0000084c <init_txt>:
     84c:	fe010113          	addi	sp,sp,-32
     850:	07000793          	li	a5,112
     854:	00000593          	li	a1,0
     858:	00000513          	li	a0,0
     85c:	00112e23          	sw	ra,28(sp)
     860:	00001717          	auipc	a4,0x1
     864:	78f704a3          	sb	a5,1929(a4) # 1fe9 <serialcol>
     868:	2fc000ef          	jal	ra,b64 <set_cursor_position>
     86c:	00001797          	auipc	a5,0x1
     870:	63478793          	addi	a5,a5,1588 # 1ea0 <names+0x210>
     874:	0007a603          	lw	a2,0(a5)
     878:	0047a683          	lw	a3,4(a5)
     87c:	0087a703          	lw	a4,8(a5)
     880:	00c7a783          	lw	a5,12(a5)
     884:	00010593          	mv	a1,sp
     888:	01100513          	li	a0,17
     88c:	00c12023          	sw	a2,0(sp)
     890:	00d12223          	sw	a3,4(sp)
     894:	00e12423          	sw	a4,8(sp)
     898:	00f12623          	sw	a5,12(sp)
     89c:	32c000ef          	jal	ra,bc8 <ioe_write>
     8a0:	01c12083          	lw	ra,28(sp)
     8a4:	02010113          	addi	sp,sp,32
     8a8:	00008067          	ret

000008ac <init_img>:
     8ac:	fc010113          	addi	sp,sp,-64
     8b0:	02812c23          	sw	s0,56(sp)
     8b4:	02912a23          	sw	s1,52(sp)
     8b8:	03212823          	sw	s2,48(sp)
     8bc:	03312623          	sw	s3,44(sp)
     8c0:	03412423          	sw	s4,40(sp)
     8c4:	02112e23          	sw	ra,60(sp)
     8c8:	00000413          	li	s0,0
     8cc:	00005a17          	auipc	s4,0x5
     8d0:	920a0a13          	addi	s4,s4,-1760 # 51ec <space>
     8d4:	28000993          	li	s3,640
     8d8:	00100913          	li	s2,1
     8dc:	1e000493          	li	s1,480
     8e0:	00812623          	sw	s0,12(sp)
     8e4:	00810593          	addi	a1,sp,8
     8e8:	00140413          	addi	s0,s0,1
     8ec:	00b00513          	li	a0,11
     8f0:	00012423          	sw	zero,8(sp)
     8f4:	01412823          	sw	s4,16(sp)
     8f8:	01312a23          	sw	s3,20(sp)
     8fc:	01212c23          	sw	s2,24(sp)
     900:	00010e23          	sb	zero,28(sp)
     904:	2c4000ef          	jal	ra,bc8 <ioe_write>
     908:	fc941ce3          	bne	s0,s1,8e0 <init_img+0x34>
     90c:	03c12083          	lw	ra,60(sp)
     910:	03812403          	lw	s0,56(sp)
     914:	03412483          	lw	s1,52(sp)
     918:	03012903          	lw	s2,48(sp)
     91c:	02c12983          	lw	s3,44(sp)
     920:	02812a03          	lw	s4,40(sp)
     924:	04010113          	addi	sp,sp,64
     928:	00008067          	ret

0000092c <main>:
     92c:	fd010113          	addi	sp,sp,-48
     930:	00810593          	addi	a1,sp,8
     934:	01000513          	li	a0,16
     938:	02112623          	sw	ra,44(sp)
     93c:	02812423          	sw	s0,40(sp)
     940:	02912223          	sw	s1,36(sp)
     944:	03212023          	sw	s2,32(sp)
     948:	01312e23          	sw	s3,28(sp)
     94c:	260000ef          	jal	ra,bac <ioe_read>
     950:	00812403          	lw	s0,8(sp)
     954:	00810593          	addi	a1,sp,8
     958:	00f00513          	li	a0,15
     95c:	00012423          	sw	zero,8(sp)
     960:	00810623          	sb	s0,12(sp)
     964:	264000ef          	jal	ra,bc8 <ioe_write>
     968:	00500793          	li	a5,5
     96c:	0e87ee63          	bltu	a5,s0,a68 <main+0x13c>
     970:	00001717          	auipc	a4,0x1
     974:	49470713          	addi	a4,a4,1172 # 1e04 <names+0x174>
     978:	00241413          	slli	s0,s0,0x2
     97c:	00e40433          	add	s0,s0,a4
     980:	00042783          	lw	a5,0(s0)
     984:	00e787b3          	add	a5,a5,a4
     988:	00078067          	jr	a5
     98c:	fffff797          	auipc	a5,0xfffff
     990:	6d078793          	addi	a5,a5,1744 # 5c <coltxt>
     994:	00005717          	auipc	a4,0x5
     998:	26f72023          	sw	a5,608(a4) # 5bf4 <entry>
     99c:	1ac000ef          	jal	ra,b48 <vga_set_txt>
     9a0:	eadff0ef          	jal	ra,84c <init_txt>
     9a4:	eb8ff0ef          	jal	ra,5c <coltxt>
     9a8:	02c12083          	lw	ra,44(sp)
     9ac:	02812403          	lw	s0,40(sp)
     9b0:	02412483          	lw	s1,36(sp)
     9b4:	02012903          	lw	s2,32(sp)
     9b8:	01c12983          	lw	s3,28(sp)
     9bc:	00000513          	li	a0,0
     9c0:	03010113          	addi	sp,sp,48
     9c4:	00008067          	ret
     9c8:	00000797          	auipc	a5,0x0
     9cc:	86c78793          	addi	a5,a5,-1940 # 234 <board_io_port>
     9d0:	00005717          	auipc	a4,0x5
     9d4:	22f72223          	sw	a5,548(a4) # 5bf4 <entry>
     9d8:	170000ef          	jal	ra,b48 <vga_set_txt>
     9dc:	e71ff0ef          	jal	ra,84c <init_txt>
     9e0:	855ff0ef          	jal	ra,234 <board_io_port>
     9e4:	fc5ff06f          	j	9a8 <main+0x7c>
     9e8:	fffff797          	auipc	a5,0xfffff
     9ec:	62878793          	addi	a5,a5,1576 # 10 <hello>
     9f0:	00005717          	auipc	a4,0x5
     9f4:	20f72223          	sw	a5,516(a4) # 5bf4 <entry>
     9f8:	150000ef          	jal	ra,b48 <vga_set_txt>
     9fc:	e51ff0ef          	jal	ra,84c <init_txt>
     a00:	e10ff0ef          	jal	ra,10 <hello>
     a04:	fa5ff06f          	j	9a8 <main+0x7c>
     a08:	fffff797          	auipc	a5,0xfffff
     a0c:	78878793          	addi	a5,a5,1928 # 190 <rtc_test>
     a10:	00005717          	auipc	a4,0x5
     a14:	1ef72223          	sw	a5,484(a4) # 5bf4 <entry>
     a18:	130000ef          	jal	ra,b48 <vga_set_txt>
     a1c:	e31ff0ef          	jal	ra,84c <init_txt>
     a20:	f70ff0ef          	jal	ra,190 <rtc_test>
     a24:	f85ff06f          	j	9a8 <main+0x7c>
     a28:	00000797          	auipc	a5,0x0
     a2c:	d8078793          	addi	a5,a5,-640 # 7a8 <keyboard_test>
     a30:	00005717          	auipc	a4,0x5
     a34:	1cf72223          	sw	a5,452(a4) # 5bf4 <entry>
     a38:	110000ef          	jal	ra,b48 <vga_set_txt>
     a3c:	e11ff0ef          	jal	ra,84c <init_txt>
     a40:	d69ff0ef          	jal	ra,7a8 <keyboard_test>
     a44:	f65ff06f          	j	9a8 <main+0x7c>
     a48:	00000797          	auipc	a5,0x0
     a4c:	d0878793          	addi	a5,a5,-760 # 750 <video_test>
     a50:	00005717          	auipc	a4,0x5
     a54:	1af72223          	sw	a5,420(a4) # 5bf4 <entry>
     a58:	100000ef          	jal	ra,b58 <vga_set_img>
     a5c:	e51ff0ef          	jal	ra,8ac <init_img>
     a60:	cf1ff0ef          	jal	ra,750 <video_test>
     a64:	f45ff06f          	j	9a8 <main+0x7c>
     a68:	0e0000ef          	jal	ra,b48 <vga_set_txt>
     a6c:	de1ff0ef          	jal	ra,84c <init_txt>
     a70:	00001517          	auipc	a0,0x1
     a74:	36c50513          	addi	a0,a0,876 # 1ddc <names+0x14c>
     a78:	36d000ef          	jal	ra,15e4 <printf>
     a7c:	00001497          	auipc	s1,0x1
     a80:	43448493          	addi	s1,s1,1076 # 1eb0 <tests>
     a84:	00000413          	li	s0,0
     a88:	00001997          	auipc	s3,0x1
     a8c:	37098993          	addi	s3,s3,880 # 1df8 <names+0x168>
     a90:	00700913          	li	s2,7
     a94:	0004a603          	lw	a2,0(s1)
     a98:	00060863          	beqz	a2,aa8 <main+0x17c>
     a9c:	00040593          	mv	a1,s0
     aa0:	00098513          	mv	a0,s3
     aa4:	341000ef          	jal	ra,15e4 <printf>
     aa8:	00140413          	addi	s0,s0,1
     aac:	00448493          	addi	s1,s1,4
     ab0:	ff2412e3          	bne	s0,s2,a94 <main+0x168>
     ab4:	ef5ff06f          	j	9a8 <main+0x7c>

00000ab8 <putch>:
     ab8:	00005617          	auipc	a2,0x5
     abc:	14460613          	addi	a2,a2,324 # 5bfc <txt_y>
     ac0:	00a00793          	li	a5,10
     ac4:	00062703          	lw	a4,0(a2)
     ac8:	06f50663          	beq	a0,a5,b34 <putch+0x7c>
     acc:	00005697          	auipc	a3,0x5
     ad0:	12c68693          	addi	a3,a3,300 # 5bf8 <txt_x>
     ad4:	0006a583          	lw	a1,0(a3)
     ad8:	00271793          	slli	a5,a4,0x2
     adc:	00e787b3          	add	a5,a5,a4
     ae0:	00479793          	slli	a5,a5,0x4
     ae4:	00b787b3          	add	a5,a5,a1
     ae8:	20000737          	lui	a4,0x20000
     aec:	00e78733          	add	a4,a5,a4
     af0:	00a70023          	sb	a0,0(a4) # 20000000 <_end+0x1fff9400>
     af4:	300005b7          	lui	a1,0x30000
     af8:	00001717          	auipc	a4,0x1
     afc:	4f174703          	lbu	a4,1265(a4) # 1fe9 <serialcol>
     b00:	00b787b3          	add	a5,a5,a1
     b04:	00e78023          	sb	a4,0(a5)
     b08:	0006a783          	lw	a5,0(a3)
     b0c:	04f00713          	li	a4,79
     b10:	00178793          	addi	a5,a5,1
     b14:	00f6a023          	sw	a5,0(a3)
     b18:	00f75c63          	bge	a4,a5,b30 <putch+0x78>
     b1c:	00062783          	lw	a5,0(a2)
     b20:	00005717          	auipc	a4,0x5
     b24:	0c072c23          	sw	zero,216(a4) # 5bf8 <txt_x>
     b28:	00178793          	addi	a5,a5,1
     b2c:	00f62023          	sw	a5,0(a2)
     b30:	00008067          	ret
     b34:	00170713          	addi	a4,a4,1
     b38:	00005797          	auipc	a5,0x5
     b3c:	0c07a023          	sw	zero,192(a5) # 5bf8 <txt_x>
     b40:	00e62023          	sw	a4,0(a2)
     b44:	00008067          	ret

00000b48 <vga_set_txt>:
     b48:	a00007b7          	lui	a5,0xa0000
     b4c:	00100713          	li	a4,1
     b50:	00e78023          	sb	a4,0(a5) # a0000000 <_end+0x9fff9400>
     b54:	00008067          	ret

00000b58 <vga_set_img>:
     b58:	a00007b7          	lui	a5,0xa0000
     b5c:	00078023          	sb	zero,0(a5) # a0000000 <_end+0x9fff9400>
     b60:	00008067          	ret

00000b64 <set_cursor_position>:
     b64:	00005797          	auipc	a5,0x5
     b68:	08a7aa23          	sw	a0,148(a5) # 5bf8 <txt_x>
     b6c:	00005797          	auipc	a5,0x5
     b70:	08b7a823          	sw	a1,144(a5) # 5bfc <txt_y>
     b74:	00008067          	ret

00000b78 <_trm_init>:
     b78:	ff010113          	addi	sp,sp,-16
     b7c:	00001517          	auipc	a0,0x1
     b80:	46050513          	addi	a0,a0,1120 # 1fdc <mainargs>
     b84:	00112623          	sw	ra,12(sp)
     b88:	da5ff0ef          	jal	ra,92c <main>
     b8c:	0000006f          	j	b8c <_trm_init+0x14>

00000b90 <__am_timer_config>:
     b90:	00100793          	li	a5,1
     b94:	00f50023          	sb	a5,0(a0)
     b98:	00f500a3          	sb	a5,1(a0)
     b9c:	00008067          	ret

00000ba0 <__am_input_config>:
     ba0:	00100793          	li	a5,1
     ba4:	00f50023          	sb	a5,0(a0)
     ba8:	00008067          	ret

00000bac <ioe_read>:
     bac:	00251513          	slli	a0,a0,0x2
     bb0:	00001797          	auipc	a5,0x1
     bb4:	43c78793          	addi	a5,a5,1084 # 1fec <lut>
     bb8:	00a787b3          	add	a5,a5,a0
     bbc:	0007a783          	lw	a5,0(a5)
     bc0:	00058513          	mv	a0,a1
     bc4:	00078067          	jr	a5

00000bc8 <ioe_write>:
     bc8:	00251513          	slli	a0,a0,0x2
     bcc:	00001797          	auipc	a5,0x1
     bd0:	42078793          	addi	a5,a5,1056 # 1fec <lut>
     bd4:	00a787b3          	add	a5,a5,a0
     bd8:	0007a783          	lw	a5,0(a5)
     bdc:	00058513          	mv	a0,a1
     be0:	00078067          	jr	a5

00000be4 <__am_timer_uptime>:
     be4:	500007b7          	lui	a5,0x50000
     be8:	0047a703          	lw	a4,4(a5) # 50000004 <_end+0x4fff9404>
     bec:	0007a783          	lw	a5,0(a5)
     bf0:	00e52223          	sw	a4,4(a0)
     bf4:	00f52023          	sw	a5,0(a0)
     bf8:	00008067          	ret

00000bfc <__am_timer_rtc>:
     bfc:	76c00793          	li	a5,1900
     c00:	00052a23          	sw	zero,20(a0)
     c04:	00052823          	sw	zero,16(a0)
     c08:	00052623          	sw	zero,12(a0)
     c0c:	00052423          	sw	zero,8(a0)
     c10:	00052223          	sw	zero,4(a0)
     c14:	00f52023          	sw	a5,0(a0)
     c18:	00008067          	ret

00000c1c <__am_input_keybrd>:
     c1c:	400007b7          	lui	a5,0x40000
     c20:	0007a783          	lw	a5,0(a5) # 40000000 <_end+0x3fff9400>
     c24:	ffff86b7          	lui	a3,0xffff8
     c28:	fff68693          	addi	a3,a3,-1 # ffff7fff <_end+0xffff13ff>
     c2c:	00f7d713          	srli	a4,a5,0xf
     c30:	00177713          	andi	a4,a4,1
     c34:	00d7f7b3          	and	a5,a5,a3
     c38:	00e50023          	sb	a4,0(a0)
     c3c:	00f52223          	sw	a5,4(a0)
     c40:	00008067          	ret

00000c44 <__am_input_sw>:
     c44:	900007b7          	lui	a5,0x90000
     c48:	0007a783          	lw	a5,0(a5) # 90000000 <_end+0x8fff9400>
     c4c:	00f52023          	sw	a5,0(a0)
     c50:	00008067          	ret

00000c54 <__am_gpu_config>:
     c54:	00001797          	auipc	a5,0x1
     c58:	27878793          	addi	a5,a5,632 # 1ecc <tests+0x1c>
     c5c:	0007a603          	lw	a2,0(a5)
     c60:	0047a683          	lw	a3,4(a5)
     c64:	0087a703          	lw	a4,8(a5)
     c68:	00c7a783          	lw	a5,12(a5)
     c6c:	00c52023          	sw	a2,0(a0)
     c70:	00d52223          	sw	a3,4(a0)
     c74:	00e52423          	sw	a4,8(a0)
     c78:	00f52623          	sw	a5,12(a0)
     c7c:	00008067          	ret

00000c80 <__am_gpu_fbdraw>:
     c80:	00452583          	lw	a1,4(a0)
     c84:	01052803          	lw	a6,16(a0)
     c88:	00852703          	lw	a4,8(a0)
     c8c:	00058313          	mv	t1,a1
     c90:	07005263          	blez	a6,cf4 <__am_gpu_fbdraw+0x74>
     c94:	00259893          	slli	a7,a1,0x2
     c98:	00052603          	lw	a2,0(a0)
     c9c:	00c52683          	lw	a3,12(a0)
     ca0:	00b888b3          	add	a7,a7,a1
     ca4:	00789893          	slli	a7,a7,0x7
     ca8:	60000e37          	lui	t3,0x60000
     cac:	00060793          	mv	a5,a2
     cb0:	02d05a63          	blez	a3,ce4 <__am_gpu_fbdraw+0x64>
     cb4:	01c88833          	add	a6,a7,t3
     cb8:	00072603          	lw	a2,0(a4)
     cbc:	00f806b3          	add	a3,a6,a5
     cc0:	00178793          	addi	a5,a5,1
     cc4:	00c6a023          	sw	a2,0(a3)
     cc8:	00052603          	lw	a2,0(a0)
     ccc:	00c52683          	lw	a3,12(a0)
     cd0:	00470713          	addi	a4,a4,4
     cd4:	00d605b3          	add	a1,a2,a3
     cd8:	feb7c0e3          	blt	a5,a1,cb8 <__am_gpu_fbdraw+0x38>
     cdc:	00452583          	lw	a1,4(a0)
     ce0:	01052803          	lw	a6,16(a0)
     ce4:	00130313          	addi	t1,t1,1
     ce8:	010587b3          	add	a5,a1,a6
     cec:	28088893          	addi	a7,a7,640
     cf0:	faf34ee3          	blt	t1,a5,cac <__am_gpu_fbdraw+0x2c>
     cf4:	00008067          	ret

00000cf8 <__am_gpu_status>:
     cf8:	00100793          	li	a5,1
     cfc:	00f50023          	sb	a5,0(a0)
     d00:	00008067          	ret

00000d04 <__am_txt_fbdraw>:
     d04:	00c52783          	lw	a5,12(a0)
     d08:	00852883          	lw	a7,8(a0)
     d0c:	00052703          	lw	a4,0(a0)
     d10:	00452603          	lw	a2,4(a0)
     d14:	06f05263          	blez	a5,d78 <__am_txt_fbdraw+0x74>
     d18:	00088693          	mv	a3,a7
     d1c:	00001f17          	auipc	t5,0x1
     d20:	2cdf0f13          	addi	t5,t5,717 # 1fe9 <serialcol>
     d24:	20000eb7          	lui	t4,0x20000
     d28:	30000e37          	lui	t3,0x30000
     d2c:	04f00313          	li	t1,79
     d30:	00261793          	slli	a5,a2,0x2
     d34:	00c787b3          	add	a5,a5,a2
     d38:	0006c803          	lbu	a6,0(a3)
     d3c:	00479793          	slli	a5,a5,0x4
     d40:	00e787b3          	add	a5,a5,a4
     d44:	01d785b3          	add	a1,a5,t4
     d48:	01058023          	sb	a6,0(a1) # 30000000 <_end+0x2fff9400>
     d4c:	000f4583          	lbu	a1,0(t5)
     d50:	01c787b3          	add	a5,a5,t3
     d54:	00168693          	addi	a3,a3,1
     d58:	00b78023          	sb	a1,0(a5)
     d5c:	00170713          	addi	a4,a4,1
     d60:	411685b3          	sub	a1,a3,a7
     d64:	00e35663          	bge	t1,a4,d70 <__am_txt_fbdraw+0x6c>
     d68:	00160613          	addi	a2,a2,1
     d6c:	00000713          	li	a4,0
     d70:	00c52783          	lw	a5,12(a0)
     d74:	faf5cee3          	blt	a1,a5,d30 <__am_txt_fbdraw+0x2c>
     d78:	00008067          	ret

00000d7c <__am_light_led>:
     d7c:	00052683          	lw	a3,0(a0)
     d80:	00454703          	lbu	a4,4(a0)
     d84:	700007b7          	lui	a5,0x70000
     d88:	00d787b3          	add	a5,a5,a3
     d8c:	00e78023          	sb	a4,0(a5) # 70000000 <_end+0x6fff9400>
     d90:	00008067          	ret

00000d94 <__am_light_seg>:
     d94:	00052683          	lw	a3,0(a0)
     d98:	00454703          	lbu	a4,4(a0)
     d9c:	800007b7          	lui	a5,0x80000
     da0:	00d787b3          	add	a5,a5,a3
     da4:	00e78023          	sb	a4,0(a5) # 80000000 <_end+0x7fff9400>
     da8:	00008067          	ret

00000dac <__udivmoddi4>:
     dac:	fe010113          	addi	sp,sp,-32
     db0:	01212823          	sw	s2,16(sp)
     db4:	01412423          	sw	s4,8(sp)
     db8:	01512223          	sw	s5,4(sp)
     dbc:	01612023          	sw	s6,0(sp)
     dc0:	00112e23          	sw	ra,28(sp)
     dc4:	00812c23          	sw	s0,24(sp)
     dc8:	00912a23          	sw	s1,20(sp)
     dcc:	01312623          	sw	s3,12(sp)
     dd0:	00068a13          	mv	s4,a3
     dd4:	00050b13          	mv	s6,a0
     dd8:	00060a93          	mv	s5,a2
     ddc:	00070913          	mv	s2,a4
     de0:	04059a63          	bnez	a1,e34 <__udivmoddi4+0x88>
     de4:	18069e63          	bnez	a3,f80 <__udivmoddi4+0x1d4>
     de8:	00070a63          	beqz	a4,dfc <__udivmoddi4+0x50>
     dec:	00060593          	mv	a1,a2
     df0:	33d000ef          	jal	ra,192c <modu>
     df4:	00a92023          	sw	a0,0(s2)
     df8:	00092223          	sw	zero,4(s2)
     dfc:	000a8593          	mv	a1,s5
     e00:	000b0513          	mv	a0,s6
     e04:	37d000ef          	jal	ra,1980 <divu>
     e08:	00000593          	li	a1,0
     e0c:	01c12083          	lw	ra,28(sp)
     e10:	01812403          	lw	s0,24(sp)
     e14:	01412483          	lw	s1,20(sp)
     e18:	01012903          	lw	s2,16(sp)
     e1c:	00c12983          	lw	s3,12(sp)
     e20:	00812a03          	lw	s4,8(sp)
     e24:	00412a83          	lw	s5,4(sp)
     e28:	00012b03          	lw	s6,0(sp)
     e2c:	02010113          	addi	sp,sp,32
     e30:	00008067          	ret
     e34:	00058493          	mv	s1,a1
     e38:	00058413          	mv	s0,a1
     e3c:	0e061863          	bnez	a2,f2c <__udivmoddi4+0x180>
     e40:	1a068263          	beqz	a3,fe4 <__udivmoddi4+0x238>
     e44:	22050863          	beqz	a0,1074 <__udivmoddi4+0x2c8>
     e48:	fff68793          	addi	a5,a3,-1
     e4c:	00d7f733          	and	a4,a5,a3
     e50:	26070863          	beqz	a4,10c0 <__udivmoddi4+0x314>
     e54:	00068513          	mv	a0,a3
     e58:	2c8000ef          	jal	ra,1120 <__clzsi2>
     e5c:	00050993          	mv	s3,a0
     e60:	00048513          	mv	a0,s1
     e64:	2bc000ef          	jal	ra,1120 <__clzsi2>
     e68:	40a98633          	sub	a2,s3,a0
     e6c:	01e00793          	li	a5,30
     e70:	1ac7e063          	bltu	a5,a2,1010 <__udivmoddi4+0x264>
     e74:	00160613          	addi	a2,a2,1
     e78:	02000713          	li	a4,32
     e7c:	40c70733          	sub	a4,a4,a2
     e80:	00e495b3          	sll	a1,s1,a4
     e84:	00cb56b3          	srl	a3,s6,a2
     e88:	00c4d7b3          	srl	a5,s1,a2
     e8c:	00eb1e33          	sll	t3,s6,a4
     e90:	00d5e433          	or	s0,a1,a3
     e94:	00000993          	li	s3,0
     e98:	00000e93          	li	t4,0
     e9c:	01fe5713          	srli	a4,t3,0x1f
     ea0:	00141813          	slli	a6,s0,0x1
     ea4:	00e86833          	or	a6,a6,a4
     ea8:	01f45413          	srli	s0,s0,0x1f
     eac:	00179793          	slli	a5,a5,0x1
     eb0:	0087e7b3          	or	a5,a5,s0
     eb4:	410a8333          	sub	t1,s5,a6
     eb8:	006ab733          	sltu	a4,s5,t1
     ebc:	40fa08b3          	sub	a7,s4,a5
     ec0:	40e888b3          	sub	a7,a7,a4
     ec4:	00133313          	seqz	t1,t1
     ec8:	406888b3          	sub	a7,a7,t1
     ecc:	41f8d313          	srai	t1,a7,0x1f
     ed0:	01537433          	and	s0,t1,s5
     ed4:	40880433          	sub	s0,a6,s0
     ed8:	01437333          	and	t1,t1,s4
     edc:	01f9d713          	srli	a4,s3,0x1f
     ee0:	001e1e13          	slli	t3,t3,0x1
     ee4:	00199513          	slli	a0,s3,0x1
     ee8:	00883833          	sltu	a6,a6,s0
     eec:	406787b3          	sub	a5,a5,t1
     ef0:	fff60613          	addi	a2,a2,-1
     ef4:	01d569b3          	or	s3,a0,t4
     ef8:	410787b3          	sub	a5,a5,a6
     efc:	00ee6e33          	or	t3,t3,a4
     f00:	01f8de93          	srli	t4,a7,0x1f
     f04:	f8061ce3          	bnez	a2,e9c <__udivmoddi4+0xf0>
     f08:	01f9d493          	srli	s1,s3,0x1f
     f0c:	001e1693          	slli	a3,t3,0x1
     f10:	00199513          	slli	a0,s3,0x1
     f14:	01d56533          	or	a0,a0,t4
     f18:	00d4e5b3          	or	a1,s1,a3
     f1c:	ee0908e3          	beqz	s2,e0c <__udivmoddi4+0x60>
     f20:	00892023          	sw	s0,0(s2)
     f24:	00f92223          	sw	a5,4(s2)
     f28:	ee5ff06f          	j	e0c <__udivmoddi4+0x60>
     f2c:	06068663          	beqz	a3,f98 <__udivmoddi4+0x1ec>
     f30:	00068513          	mv	a0,a3
     f34:	1ec000ef          	jal	ra,1120 <__clzsi2>
     f38:	00050993          	mv	s3,a0
     f3c:	00048513          	mv	a0,s1
     f40:	1e0000ef          	jal	ra,1120 <__clzsi2>
     f44:	40a98633          	sub	a2,s3,a0
     f48:	01f00793          	li	a5,31
     f4c:	0cc7e263          	bltu	a5,a2,1010 <__udivmoddi4+0x264>
     f50:	00160613          	addi	a2,a2,1
     f54:	02000793          	li	a5,32
     f58:	000b0e13          	mv	t3,s6
     f5c:	18f60463          	beq	a2,a5,10e4 <__udivmoddi4+0x338>
     f60:	40c78733          	sub	a4,a5,a2
     f64:	00cb56b3          	srl	a3,s6,a2
     f68:	00e495b3          	sll	a1,s1,a4
     f6c:	00c4d7b3          	srl	a5,s1,a2
     f70:	00eb1e33          	sll	t3,s6,a4
     f74:	00d5e433          	or	s0,a1,a3
     f78:	00000993          	li	s3,0
     f7c:	f1dff06f          	j	e98 <__udivmoddi4+0xec>
     f80:	08070a63          	beqz	a4,1014 <__udivmoddi4+0x268>
     f84:	00a92023          	sw	a0,0(s2)
     f88:	00072223          	sw	zero,4(a4)
     f8c:	00000513          	li	a0,0
     f90:	00000593          	li	a1,0
     f94:	e79ff06f          	j	e0c <__udivmoddi4+0x60>
     f98:	fff60793          	addi	a5,a2,-1
     f9c:	00c7f733          	and	a4,a5,a2
     fa0:	08071063          	bnez	a4,1020 <__udivmoddi4+0x274>
     fa4:	00090863          	beqz	s2,fb4 <__udivmoddi4+0x208>
     fa8:	00a7f7b3          	and	a5,a5,a0
     fac:	00f92023          	sw	a5,0(s2)
     fb0:	00092223          	sw	zero,4(s2)
     fb4:	00100793          	li	a5,1
     fb8:	0efa8e63          	beq	s5,a5,10b4 <__udivmoddi4+0x308>
     fbc:	000a8513          	mv	a0,s5
     fc0:	1f8000ef          	jal	ra,11b8 <__ctzsi2>
     fc4:	02000793          	li	a5,32
     fc8:	40a787b3          	sub	a5,a5,a0
     fcc:	00050713          	mv	a4,a0
     fd0:	00f497b3          	sll	a5,s1,a5
     fd4:	00ab5e33          	srl	t3,s6,a0
     fd8:	01c7e533          	or	a0,a5,t3
     fdc:	00e4d5b3          	srl	a1,s1,a4
     fe0:	e2dff06f          	j	e0c <__udivmoddi4+0x60>
     fe4:	00070c63          	beqz	a4,ffc <__udivmoddi4+0x250>
     fe8:	00000593          	li	a1,0
     fec:	00048513          	mv	a0,s1
     ff0:	13d000ef          	jal	ra,192c <modu>
     ff4:	00a92023          	sw	a0,0(s2)
     ff8:	00092223          	sw	zero,4(s2)
     ffc:	00000593          	li	a1,0
    1000:	00048513          	mv	a0,s1
    1004:	17d000ef          	jal	ra,1980 <divu>
    1008:	00000593          	li	a1,0
    100c:	e01ff06f          	j	e0c <__udivmoddi4+0x60>
    1010:	08091863          	bnez	s2,10a0 <__udivmoddi4+0x2f4>
    1014:	00000513          	li	a0,0
    1018:	00000593          	li	a1,0
    101c:	df1ff06f          	j	e0c <__udivmoddi4+0x60>
    1020:	00060513          	mv	a0,a2
    1024:	00068993          	mv	s3,a3
    1028:	0f8000ef          	jal	ra,1120 <__clzsi2>
    102c:	00050493          	mv	s1,a0
    1030:	00040513          	mv	a0,s0
    1034:	0ec000ef          	jal	ra,1120 <__clzsi2>
    1038:	40a48533          	sub	a0,s1,a0
    103c:	02150613          	addi	a2,a0,33
    1040:	02000713          	li	a4,32
    1044:	000b0e13          	mv	t3,s6
    1048:	00000793          	li	a5,0
    104c:	e4e606e3          	beq	a2,a4,e98 <__udivmoddi4+0xec>
    1050:	01f00693          	li	a3,31
    1054:	08c6ee63          	bltu	a3,a2,10f0 <__udivmoddi4+0x344>
    1058:	40c70733          	sub	a4,a4,a2
    105c:	00cb56b3          	srl	a3,s6,a2
    1060:	00e415b3          	sll	a1,s0,a4
    1064:	00c457b3          	srl	a5,s0,a2
    1068:	00eb1e33          	sll	t3,s6,a4
    106c:	00d5e433          	or	s0,a1,a3
    1070:	e29ff06f          	j	e98 <__udivmoddi4+0xec>
    1074:	00070c63          	beqz	a4,108c <__udivmoddi4+0x2e0>
    1078:	00068593          	mv	a1,a3
    107c:	00048513          	mv	a0,s1
    1080:	0ad000ef          	jal	ra,192c <modu>
    1084:	00a92223          	sw	a0,4(s2)
    1088:	00092023          	sw	zero,0(s2)
    108c:	000a0593          	mv	a1,s4
    1090:	00048513          	mv	a0,s1
    1094:	0ed000ef          	jal	ra,1980 <divu>
    1098:	00000593          	li	a1,0
    109c:	d71ff06f          	j	e0c <__udivmoddi4+0x60>
    10a0:	01692023          	sw	s6,0(s2)
    10a4:	00992223          	sw	s1,4(s2)
    10a8:	00000513          	li	a0,0
    10ac:	00000593          	li	a1,0
    10b0:	d5dff06f          	j	e0c <__udivmoddi4+0x60>
    10b4:	000b0513          	mv	a0,s6
    10b8:	00048593          	mv	a1,s1
    10bc:	d51ff06f          	j	e0c <__udivmoddi4+0x60>
    10c0:	00090863          	beqz	s2,10d0 <__udivmoddi4+0x324>
    10c4:	00b7f7b3          	and	a5,a5,a1
    10c8:	00a92023          	sw	a0,0(s2)
    10cc:	00f92223          	sw	a5,4(s2)
    10d0:	000a0513          	mv	a0,s4
    10d4:	0e4000ef          	jal	ra,11b8 <__ctzsi2>
    10d8:	00a4d533          	srl	a0,s1,a0
    10dc:	00000593          	li	a1,0
    10e0:	d2dff06f          	j	e0c <__udivmoddi4+0x60>
    10e4:	00000793          	li	a5,0
    10e8:	00000993          	li	s3,0
    10ec:	dadff06f          	j	e98 <__udivmoddi4+0xec>
    10f0:	04000693          	li	a3,64
    10f4:	00150713          	addi	a4,a0,1
    10f8:	40c686b3          	sub	a3,a3,a2
    10fc:	00d415b3          	sll	a1,s0,a3
    1100:	00db1533          	sll	a0,s6,a3
    1104:	00eb5e33          	srl	t3,s6,a4
    1108:	01c5ee33          	or	t3,a1,t3
    110c:	00e45433          	srl	s0,s0,a4
    1110:	00050993          	mv	s3,a0
    1114:	d85ff06f          	j	e98 <__udivmoddi4+0xec>

00001118 <__udivdi3>:
    1118:	00000713          	li	a4,0
    111c:	c91ff06f          	j	dac <__udivmoddi4>

00001120 <__clzsi2>:
    1120:	ffff05b7          	lui	a1,0xffff0
    1124:	00b575b3          	and	a1,a0,a1
    1128:	0015b593          	seqz	a1,a1
    112c:	00459593          	slli	a1,a1,0x4
    1130:	01000793          	li	a5,16
    1134:	40b787b3          	sub	a5,a5,a1
    1138:	00010737          	lui	a4,0x10
    113c:	00f557b3          	srl	a5,a0,a5
    1140:	f0070713          	addi	a4,a4,-256 # ff00 <_end+0x9300>
    1144:	00e7f733          	and	a4,a5,a4
    1148:	00173713          	seqz	a4,a4
    114c:	00371713          	slli	a4,a4,0x3
    1150:	00800693          	li	a3,8
    1154:	40e686b3          	sub	a3,a3,a4
    1158:	00d7d7b3          	srl	a5,a5,a3
    115c:	0f07f613          	andi	a2,a5,240
    1160:	00163613          	seqz	a2,a2
    1164:	00261613          	slli	a2,a2,0x2
    1168:	00400693          	li	a3,4
    116c:	40c686b3          	sub	a3,a3,a2
    1170:	00d7d7b3          	srl	a5,a5,a3
    1174:	00c7f693          	andi	a3,a5,12
    1178:	0016b693          	seqz	a3,a3
    117c:	00169693          	slli	a3,a3,0x1
    1180:	00200813          	li	a6,2
    1184:	40d80533          	sub	a0,a6,a3
    1188:	00a7d7b3          	srl	a5,a5,a0
    118c:	0017d513          	srli	a0,a5,0x1
    1190:	00154513          	xori	a0,a0,1
    1194:	00b70733          	add	a4,a4,a1
    1198:	00157513          	andi	a0,a0,1
    119c:	00e60633          	add	a2,a2,a4
    11a0:	40f80833          	sub	a6,a6,a5
    11a4:	40a00733          	neg	a4,a0
    11a8:	01077733          	and	a4,a4,a6
    11ac:	00c68533          	add	a0,a3,a2
    11b0:	00a70533          	add	a0,a4,a0
    11b4:	00008067          	ret

000011b8 <__ctzsi2>:
    11b8:	01051593          	slli	a1,a0,0x10
    11bc:	0105d593          	srli	a1,a1,0x10
    11c0:	0015b593          	seqz	a1,a1
    11c4:	00459593          	slli	a1,a1,0x4
    11c8:	00b557b3          	srl	a5,a0,a1
    11cc:	0ff7f613          	zext.b	a2,a5
    11d0:	00163613          	seqz	a2,a2
    11d4:	00361613          	slli	a2,a2,0x3
    11d8:	00c7d7b3          	srl	a5,a5,a2
    11dc:	00f7f693          	andi	a3,a5,15
    11e0:	0016b693          	seqz	a3,a3
    11e4:	00269693          	slli	a3,a3,0x2
    11e8:	00d7d7b3          	srl	a5,a5,a3
    11ec:	0037f713          	andi	a4,a5,3
    11f0:	00173713          	seqz	a4,a4
    11f4:	00171713          	slli	a4,a4,0x1
    11f8:	00e7d7b3          	srl	a5,a5,a4
    11fc:	0017d513          	srli	a0,a5,0x1
    1200:	00b60633          	add	a2,a2,a1
    1204:	0017f793          	andi	a5,a5,1
    1208:	00157593          	andi	a1,a0,1
    120c:	00200513          	li	a0,2
    1210:	00c686b3          	add	a3,a3,a2
    1214:	40b50533          	sub	a0,a0,a1
    1218:	fff78793          	addi	a5,a5,-1
    121c:	00f57533          	and	a0,a0,a5
    1220:	00d70733          	add	a4,a4,a3
    1224:	00e50533          	add	a0,a0,a4
    1228:	00008067          	ret

0000122c <int2str>:
    122c:	fa010113          	addi	sp,sp,-96
    1230:	03b12623          	sw	s11,44(sp)
    1234:	06412d83          	lw	s11,100(sp)
    1238:	04812c23          	sw	s0,88(sp)
    123c:	04912a23          	sw	s1,84(sp)
    1240:	05312623          	sw	s3,76(sp)
    1244:	05412423          	sw	s4,72(sp)
    1248:	05512223          	sw	s5,68(sp)
    124c:	03712e23          	sw	s7,60(sp)
    1250:	03912a23          	sw	s9,52(sp)
    1254:	03a12823          	sw	s10,48(sp)
    1258:	04112e23          	sw	ra,92(sp)
    125c:	05212823          	sw	s2,80(sp)
    1260:	05612023          	sw	s6,64(sp)
    1264:	03812c23          	sw	s8,56(sp)
    1268:	00b12623          	sw	a1,12(sp)
    126c:	00f12423          	sw	a5,8(sp)
    1270:	06012a83          	lw	s5,96(sp)
    1274:	000daa03          	lw	s4,0(s11)
    1278:	00050413          	mv	s0,a0
    127c:	00060d13          	mv	s10,a2
    1280:	00068993          	mv	s3,a3
    1284:	00080b93          	mv	s7,a6
    1288:	00088c93          	mv	s9,a7
    128c:	00000493          	li	s1,0
    1290:	00070463          	beqz	a4,1298 <int2str+0x6c>
    1294:	18054e63          	bltz	a0,1430 <int2str+0x204>
    1298:	01410913          	addi	s2,sp,20
    129c:	00900c13          	li	s8,9
    12a0:	0080006f          	j	12a8 <int2str+0x7c>
    12a4:	000b0493          	mv	s1,s6
    12a8:	000d0593          	mv	a1,s10
    12ac:	00040513          	mv	a0,s0
    12b0:	67c000ef          	jal	ra,192c <modu>
    12b4:	03050793          	addi	a5,a0,48
    12b8:	05750713          	addi	a4,a0,87
    12bc:	0ff7f793          	zext.b	a5,a5
    12c0:	00ac7463          	bgeu	s8,a0,12c8 <int2str+0x9c>
    12c4:	0ff77793          	zext.b	a5,a4
    12c8:	00148b13          	addi	s6,s1,1
    12cc:	01690733          	add	a4,s2,s6
    12d0:	00040513          	mv	a0,s0
    12d4:	000d0593          	mv	a1,s10
    12d8:	fef70fa3          	sb	a5,-1(a4)
    12dc:	6a4000ef          	jal	ra,1980 <divu>
    12e0:	00050413          	mv	s0,a0
    12e4:	fc0510e3          	bnez	a0,12a4 <int2str+0x78>
    12e8:	00812783          	lw	a5,8(sp)
    12ec:	14079c63          	bnez	a5,1444 <int2str+0x218>
    12f0:	157b5a63          	bge	s6,s7,1444 <int2str+0x218>
    12f4:	00c12783          	lw	a5,12(sp)
    12f8:	01c0006f          	j	1314 <int2str+0xe8>
    12fc:	01978023          	sb	s9,0(a5)
    1300:	00040793          	mv	a5,s0
    1304:	000da703          	lw	a4,0(s11)
    1308:	00170713          	addi	a4,a4,1
    130c:	00eda023          	sw	a4,0(s11)
    1310:	037b0a63          	beq	s6,s7,1344 <int2str+0x118>
    1314:	fffb8b93          	addi	s7,s7,-1
    1318:	ff5056e3          	blez	s5,1304 <int2str+0xd8>
    131c:	00178413          	addi	s0,a5,1
    1320:	fffa8a93          	addi	s5,s5,-1
    1324:	fc098ce3          	beqz	s3,12fc <int2str+0xd0>
    1328:	000c8513          	mv	a0,s9
    132c:	f8cff0ef          	jal	ra,ab8 <putch>
    1330:	000da703          	lw	a4,0(s11)
    1334:	00040793          	mv	a5,s0
    1338:	00170713          	addi	a4,a4,1
    133c:	00eda023          	sw	a4,0(s11)
    1340:	fd7b1ae3          	bne	s6,s7,1314 <int2str+0xe8>
    1344:	00990433          	add	s0,s2,s1
    1348:	01505e63          	blez	s5,1364 <int2str+0x138>
    134c:	00044503          	lbu	a0,0(s0)
    1350:	00178493          	addi	s1,a5,1
    1354:	fffa8a93          	addi	s5,s5,-1
    1358:	02099463          	bnez	s3,1380 <int2str+0x154>
    135c:	00a78023          	sb	a0,0(a5)
    1360:	00048793          	mv	a5,s1
    1364:	000da703          	lw	a4,0(s11)
    1368:	fff40613          	addi	a2,s0,-1
    136c:	00170713          	addi	a4,a4,1
    1370:	00eda023          	sw	a4,0(s11)
    1374:	02890463          	beq	s2,s0,139c <int2str+0x170>
    1378:	00060413          	mv	s0,a2
    137c:	fcdff06f          	j	1348 <int2str+0x11c>
    1380:	f38ff0ef          	jal	ra,ab8 <putch>
    1384:	000da703          	lw	a4,0(s11)
    1388:	00048793          	mv	a5,s1
    138c:	fff40613          	addi	a2,s0,-1
    1390:	00170713          	addi	a4,a4,1
    1394:	00eda023          	sw	a4,0(s11)
    1398:	fe8910e3          	bne	s2,s0,1378 <int2str+0x14c>
    139c:	00812683          	lw	a3,8(sp)
    13a0:	02069063          	bnez	a3,13c0 <int2str+0x194>
    13a4:	0480006f          	j	13ec <int2str+0x1c0>
    13a8:	02000713          	li	a4,32
    13ac:	00e78023          	sb	a4,0(a5)
    13b0:	000da703          	lw	a4,0(s11)
    13b4:	00040793          	mv	a5,s0
    13b8:	00170713          	addi	a4,a4,1
    13bc:	00eda023          	sw	a4,0(s11)
    13c0:	41470633          	sub	a2,a4,s4
    13c4:	03665463          	bge	a2,s6,13ec <int2str+0x1c0>
    13c8:	ff5058e3          	blez	s5,13b8 <int2str+0x18c>
    13cc:	00178413          	addi	s0,a5,1
    13d0:	fffa8a93          	addi	s5,s5,-1
    13d4:	fc098ae3          	beqz	s3,13a8 <int2str+0x17c>
    13d8:	02000513          	li	a0,32
    13dc:	edcff0ef          	jal	ra,ab8 <putch>
    13e0:	000da703          	lw	a4,0(s11)
    13e4:	00040793          	mv	a5,s0
    13e8:	fd1ff06f          	j	13b8 <int2str+0x18c>
    13ec:	00c12703          	lw	a4,12(sp)
    13f0:	05c12083          	lw	ra,92(sp)
    13f4:	05812403          	lw	s0,88(sp)
    13f8:	05412483          	lw	s1,84(sp)
    13fc:	05012903          	lw	s2,80(sp)
    1400:	04c12983          	lw	s3,76(sp)
    1404:	04812a03          	lw	s4,72(sp)
    1408:	04412a83          	lw	s5,68(sp)
    140c:	04012b03          	lw	s6,64(sp)
    1410:	03c12b83          	lw	s7,60(sp)
    1414:	03812c03          	lw	s8,56(sp)
    1418:	03412c83          	lw	s9,52(sp)
    141c:	03012d03          	lw	s10,48(sp)
    1420:	02c12d83          	lw	s11,44(sp)
    1424:	40e78533          	sub	a0,a5,a4
    1428:	06010113          	addi	sp,sp,96
    142c:	00008067          	ret
    1430:	02d00793          	li	a5,45
    1434:	40a00433          	neg	s0,a0
    1438:	00f10a23          	sb	a5,20(sp)
    143c:	00100493          	li	s1,1
    1440:	e59ff06f          	j	1298 <int2str+0x6c>
    1444:	00c12783          	lw	a5,12(sp)
    1448:	000b8b13          	mv	s6,s7
    144c:	00990433          	add	s0,s2,s1
    1450:	ef9ff06f          	j	1348 <int2str+0x11c>

00001454 <printstr>:
    1454:	fd010113          	addi	sp,sp,-48
    1458:	01512a23          	sw	s5,20(sp)
    145c:	00068a93          	mv	s5,a3
    1460:	02812423          	sw	s0,40(sp)
    1464:	02912223          	sw	s1,36(sp)
    1468:	03212023          	sw	s2,32(sp)
    146c:	01312e23          	sw	s3,28(sp)
    1470:	01412c23          	sw	s4,24(sp)
    1474:	01612823          	sw	s6,16(sp)
    1478:	01712623          	sw	s7,12(sp)
    147c:	02112623          	sw	ra,44(sp)
    1480:	01812423          	sw	s8,8(sp)
    1484:	01912223          	sw	s9,4(sp)
    1488:	00082983          	lw	s3,0(a6)
    148c:	00080493          	mv	s1,a6
    1490:	00050b13          	mv	s6,a0
    1494:	00058a13          	mv	s4,a1
    1498:	00060b93          	mv	s7,a2
    149c:	00070913          	mv	s2,a4
    14a0:	00078413          	mv	s0,a5
    14a4:	544000ef          	jal	ra,19e8 <strlen>
    14a8:	120a9463          	bnez	s5,15d0 <printstr+0x17c>
    14ac:	00050c13          	mv	s8,a0
    14b0:	000a0793          	mv	a5,s4
    14b4:	03254263          	blt	a0,s2,14d8 <printstr+0x84>
    14b8:	0500006f          	j	1508 <printstr+0xb4>
    14bc:	02000713          	li	a4,32
    14c0:	00e78023          	sb	a4,0(a5)
    14c4:	000c8793          	mv	a5,s9
    14c8:	0004a703          	lw	a4,0(s1)
    14cc:	00170713          	addi	a4,a4,1
    14d0:	00e4a023          	sw	a4,0(s1)
    14d4:	032c0a63          	beq	s8,s2,1508 <printstr+0xb4>
    14d8:	fff90913          	addi	s2,s2,-1
    14dc:	fe8056e3          	blez	s0,14c8 <printstr+0x74>
    14e0:	00178c93          	addi	s9,a5,1
    14e4:	fff40413          	addi	s0,s0,-1
    14e8:	fc0b8ae3          	beqz	s7,14bc <printstr+0x68>
    14ec:	02000513          	li	a0,32
    14f0:	dc8ff0ef          	jal	ra,ab8 <putch>
    14f4:	0004a703          	lw	a4,0(s1)
    14f8:	000c8793          	mv	a5,s9
    14fc:	00170713          	addi	a4,a4,1
    1500:	00e4a023          	sw	a4,0(s1)
    1504:	fd2c1ae3          	bne	s8,s2,14d8 <printstr+0x84>
    1508:	000b4503          	lbu	a0,0(s6)
    150c:	08050063          	beqz	a0,158c <printstr+0x138>
    1510:	00805c63          	blez	s0,1528 <printstr+0xd4>
    1514:	00178c13          	addi	s8,a5,1
    1518:	fff40413          	addi	s0,s0,-1
    151c:	0a0b9463          	bnez	s7,15c4 <printstr+0x170>
    1520:	00a78023          	sb	a0,0(a5)
    1524:	000c0793          	mv	a5,s8
    1528:	0004a883          	lw	a7,0(s1)
    152c:	001b0b13          	addi	s6,s6,1
    1530:	00188893          	addi	a7,a7,1
    1534:	0114a023          	sw	a7,0(s1)
    1538:	000b4503          	lbu	a0,0(s6)
    153c:	fc051ae3          	bnez	a0,1510 <printstr+0xbc>
    1540:	020a9063          	bnez	s5,1560 <printstr+0x10c>
    1544:	0480006f          	j	158c <printstr+0x138>
    1548:	02000713          	li	a4,32
    154c:	00e78023          	sb	a4,0(a5)
    1550:	0004a883          	lw	a7,0(s1)
    1554:	000a8793          	mv	a5,s5
    1558:	00188893          	addi	a7,a7,1
    155c:	0114a023          	sw	a7,0(s1)
    1560:	41388733          	sub	a4,a7,s3
    1564:	03275463          	bge	a4,s2,158c <printstr+0x138>
    1568:	fe8058e3          	blez	s0,1558 <printstr+0x104>
    156c:	00178a93          	addi	s5,a5,1
    1570:	fff40413          	addi	s0,s0,-1
    1574:	fc0b8ae3          	beqz	s7,1548 <printstr+0xf4>
    1578:	02000513          	li	a0,32
    157c:	d3cff0ef          	jal	ra,ab8 <putch>
    1580:	0004a883          	lw	a7,0(s1)
    1584:	000a8793          	mv	a5,s5
    1588:	fd1ff06f          	j	1558 <printstr+0x104>
    158c:	02c12083          	lw	ra,44(sp)
    1590:	02812403          	lw	s0,40(sp)
    1594:	02412483          	lw	s1,36(sp)
    1598:	02012903          	lw	s2,32(sp)
    159c:	01c12983          	lw	s3,28(sp)
    15a0:	01412a83          	lw	s5,20(sp)
    15a4:	01012b03          	lw	s6,16(sp)
    15a8:	00c12b83          	lw	s7,12(sp)
    15ac:	00812c03          	lw	s8,8(sp)
    15b0:	00412c83          	lw	s9,4(sp)
    15b4:	41478533          	sub	a0,a5,s4
    15b8:	01812a03          	lw	s4,24(sp)
    15bc:	03010113          	addi	sp,sp,48
    15c0:	00008067          	ret
    15c4:	cf4ff0ef          	jal	ra,ab8 <putch>
    15c8:	000c0793          	mv	a5,s8
    15cc:	f5dff06f          	j	1528 <printstr+0xd4>
    15d0:	000b4503          	lbu	a0,0(s6)
    15d4:	000a0793          	mv	a5,s4
    15d8:	f2051ce3          	bnez	a0,1510 <printstr+0xbc>
    15dc:	0004a883          	lw	a7,0(s1)
    15e0:	f81ff06f          	j	1560 <printstr+0x10c>

000015e4 <printf>:
    15e4:	f9010113          	addi	sp,sp,-112
    15e8:	03412c23          	sw	s4,56(sp)
    15ec:	06f12223          	sw	a5,100(sp)
    15f0:	04112623          	sw	ra,76(sp)
    15f4:	04812423          	sw	s0,72(sp)
    15f8:	04912223          	sw	s1,68(sp)
    15fc:	05212023          	sw	s2,64(sp)
    1600:	03312e23          	sw	s3,60(sp)
    1604:	03512a23          	sw	s5,52(sp)
    1608:	03612823          	sw	s6,48(sp)
    160c:	03712623          	sw	s7,44(sp)
    1610:	03812423          	sw	s8,40(sp)
    1614:	03912223          	sw	s9,36(sp)
    1618:	03a12023          	sw	s10,32(sp)
    161c:	04b12a23          	sw	a1,84(sp)
    1620:	04c12c23          	sw	a2,88(sp)
    1624:	04d12e23          	sw	a3,92(sp)
    1628:	06e12023          	sw	a4,96(sp)
    162c:	07012423          	sw	a6,104(sp)
    1630:	07112623          	sw	a7,108(sp)
    1634:	00050a13          	mv	s4,a0
    1638:	00054503          	lbu	a0,0(a0)
    163c:	05410793          	addi	a5,sp,84
    1640:	00012c23          	sw	zero,24(sp)
    1644:	00f12e23          	sw	a5,28(sp)
    1648:	2c050263          	beqz	a0,190c <printf+0x328>
    164c:	10000937          	lui	s2,0x10000
    1650:	ffe90993          	addi	s3,s2,-2 # ffffffe <_end+0xfff93fe>
    1654:	00000a93          	li	s5,0
    1658:	00000c93          	li	s9,0
    165c:	02000d13          	li	s10,32
    1660:	00000c13          	li	s8,0
    1664:	00000b93          	li	s7,0
    1668:	02500493          	li	s1,37
    166c:	06400413          	li	s0,100
    1670:	fff90913          	addi	s2,s2,-1
    1674:	00001b17          	auipc	s6,0x1
    1678:	868b0b13          	addi	s6,s6,-1944 # 1edc <tests+0x2c>
    167c:	020c0a63          	beqz	s8,16b0 <printf+0xcc>
    1680:	08a46863          	bltu	s0,a0,1710 <printf+0x12c>
    1684:	02400793          	li	a5,36
    1688:	10a7f663          	bgeu	a5,a0,1794 <printf+0x1b0>
    168c:	fdb50793          	addi	a5,a0,-37
    1690:	0ff7f793          	zext.b	a5,a5
    1694:	03f00713          	li	a4,63
    1698:	0ef76e63          	bltu	a4,a5,1794 <printf+0x1b0>
    169c:	00279793          	slli	a5,a5,0x2
    16a0:	016787b3          	add	a5,a5,s6
    16a4:	0007a783          	lw	a5,0(a5)
    16a8:	016787b3          	add	a5,a5,s6
    16ac:	00078067          	jr	a5
    16b0:	0c950663          	beq	a0,s1,177c <printf+0x198>
    16b4:	0d79da63          	bge	s3,s7,1788 <printf+0x1a4>
    16b8:	01812703          	lw	a4,24(sp)
    16bc:	000a0793          	mv	a5,s4
    16c0:	00170713          	addi	a4,a4,1
    16c4:	00e12c23          	sw	a4,24(sp)
    16c8:	0017c503          	lbu	a0,1(a5)
    16cc:	00178a13          	addi	s4,a5,1
    16d0:	fa0516e3          	bnez	a0,167c <printf+0x98>
    16d4:	01812503          	lw	a0,24(sp)
    16d8:	04c12083          	lw	ra,76(sp)
    16dc:	04812403          	lw	s0,72(sp)
    16e0:	04412483          	lw	s1,68(sp)
    16e4:	04012903          	lw	s2,64(sp)
    16e8:	03c12983          	lw	s3,60(sp)
    16ec:	03812a03          	lw	s4,56(sp)
    16f0:	03412a83          	lw	s5,52(sp)
    16f4:	03012b03          	lw	s6,48(sp)
    16f8:	02c12b83          	lw	s7,44(sp)
    16fc:	02812c03          	lw	s8,40(sp)
    1700:	02412c83          	lw	s9,36(sp)
    1704:	02012d03          	lw	s10,32(sp)
    1708:	07010113          	addi	sp,sp,112
    170c:	00008067          	ret
    1710:	07300793          	li	a5,115
    1714:	0ef50e63          	beq	a0,a5,1810 <printf+0x22c>
    1718:	07800793          	li	a5,120
    171c:	06f51c63          	bne	a0,a5,1794 <printf+0x1b0>
    1720:	01c12783          	lw	a5,28(sp)
    1724:	41790733          	sub	a4,s2,s7
    1728:	01810693          	addi	a3,sp,24
    172c:	0007a503          	lw	a0,0(a5)
    1730:	00478313          	addi	t1,a5,4
    1734:	00d12223          	sw	a3,4(sp)
    1738:	00e12023          	sw	a4,0(sp)
    173c:	000d0893          	mv	a7,s10
    1740:	000a8813          	mv	a6,s5
    1744:	000c8793          	mv	a5,s9
    1748:	000b8593          	mv	a1,s7
    174c:	00000713          	li	a4,0
    1750:	00100693          	li	a3,1
    1754:	01000613          	li	a2,16
    1758:	00612e23          	sw	t1,28(sp)
    175c:	ad1ff0ef          	jal	ra,122c <int2str>
    1760:	00ab8bb3          	add	s7,s7,a0
    1764:	000a0793          	mv	a5,s4
    1768:	00000a93          	li	s5,0
    176c:	00000c93          	li	s9,0
    1770:	02000d13          	li	s10,32
    1774:	00000c13          	li	s8,0
    1778:	f51ff06f          	j	16c8 <printf+0xe4>
    177c:	000a0793          	mv	a5,s4
    1780:	00100c13          	li	s8,1
    1784:	f45ff06f          	j	16c8 <printf+0xe4>
    1788:	b30ff0ef          	jal	ra,ab8 <putch>
    178c:	001b8b93          	addi	s7,s7,1
    1790:	f29ff06f          	j	16b8 <printf+0xd4>
    1794:	1579dc63          	bge	s3,s7,18ec <printf+0x308>
    1798:	01812703          	lw	a4,24(sp)
    179c:	000a0793          	mv	a5,s4
    17a0:	00000a93          	li	s5,0
    17a4:	00270713          	addi	a4,a4,2
    17a8:	00e12c23          	sw	a4,24(sp)
    17ac:	00000c93          	li	s9,0
    17b0:	02000d13          	li	s10,32
    17b4:	00000c13          	li	s8,0
    17b8:	f11ff06f          	j	16c8 <printf+0xe4>
    17bc:	000a4683          	lbu	a3,0(s4)
    17c0:	00900793          	li	a5,9
    17c4:	fd068713          	addi	a4,a3,-48
    17c8:	0ff77693          	zext.b	a3,a4
    17cc:	14d7e463          	bltu	a5,a3,1914 <printf+0x330>
    17d0:	000a0793          	mv	a5,s4
    17d4:	00000a93          	li	s5,0
    17d8:	00900593          	li	a1,9
    17dc:	0017c683          	lbu	a3,1(a5)
    17e0:	002a9613          	slli	a2,s5,0x2
    17e4:	01560633          	add	a2,a2,s5
    17e8:	00161613          	slli	a2,a2,0x1
    17ec:	00e60ab3          	add	s5,a2,a4
    17f0:	fd068713          	addi	a4,a3,-48
    17f4:	0ff77693          	zext.b	a3,a4
    17f8:	00178793          	addi	a5,a5,1
    17fc:	fed5f0e3          	bgeu	a1,a3,17dc <printf+0x1f8>
    1800:	414787b3          	sub	a5,a5,s4
    1804:	fff78793          	addi	a5,a5,-1
    1808:	00fa07b3          	add	a5,s4,a5
    180c:	ebdff06f          	j	16c8 <printf+0xe4>
    1810:	01c12683          	lw	a3,28(sp)
    1814:	417907b3          	sub	a5,s2,s7
    1818:	000a8713          	mv	a4,s5
    181c:	0006a503          	lw	a0,0(a3)
    1820:	00468893          	addi	a7,a3,4
    1824:	000b8593          	mv	a1,s7
    1828:	000c8693          	mv	a3,s9
    182c:	01810813          	addi	a6,sp,24
    1830:	00100613          	li	a2,1
    1834:	01112e23          	sw	a7,28(sp)
    1838:	c1dff0ef          	jal	ra,1454 <printstr>
    183c:	f25ff06f          	j	1760 <printf+0x17c>
    1840:	01c12783          	lw	a5,28(sp)
    1844:	41790733          	sub	a4,s2,s7
    1848:	01810693          	addi	a3,sp,24
    184c:	0007a503          	lw	a0,0(a5)
    1850:	00478313          	addi	t1,a5,4
    1854:	00d12223          	sw	a3,4(sp)
    1858:	00e12023          	sw	a4,0(sp)
    185c:	000d0893          	mv	a7,s10
    1860:	000a8813          	mv	a6,s5
    1864:	000c8793          	mv	a5,s9
    1868:	000b8593          	mv	a1,s7
    186c:	00100713          	li	a4,1
    1870:	00100693          	li	a3,1
    1874:	00a00613          	li	a2,10
    1878:	00612e23          	sw	t1,28(sp)
    187c:	9b1ff0ef          	jal	ra,122c <int2str>
    1880:	ee1ff06f          	j	1760 <printf+0x17c>
    1884:	01c12703          	lw	a4,28(sp)
    1888:	000a0793          	mv	a5,s4
    188c:	00470693          	addi	a3,a4,4
    1890:	00072a83          	lw	s5,0(a4)
    1894:	00d12e23          	sw	a3,28(sp)
    1898:	e31ff06f          	j	16c8 <printf+0xe4>
    189c:	0579d063          	bge	s3,s7,18dc <printf+0x2f8>
    18a0:	01812703          	lw	a4,24(sp)
    18a4:	000a0793          	mv	a5,s4
    18a8:	00000a93          	li	s5,0
    18ac:	00170713          	addi	a4,a4,1
    18b0:	00e12c23          	sw	a4,24(sp)
    18b4:	00000c93          	li	s9,0
    18b8:	02000d13          	li	s10,32
    18bc:	00000c13          	li	s8,0
    18c0:	e09ff06f          	j	16c8 <printf+0xe4>
    18c4:	000a0793          	mv	a5,s4
    18c8:	00100c93          	li	s9,1
    18cc:	dfdff06f          	j	16c8 <printf+0xe4>
    18d0:	000a0793          	mv	a5,s4
    18d4:	00050d13          	mv	s10,a0
    18d8:	df1ff06f          	j	16c8 <printf+0xe4>
    18dc:	02500513          	li	a0,37
    18e0:	9d8ff0ef          	jal	ra,ab8 <putch>
    18e4:	001b8b93          	addi	s7,s7,1
    18e8:	fb9ff06f          	j	18a0 <printf+0x2bc>
    18ec:	02500513          	li	a0,37
    18f0:	9c8ff0ef          	jal	ra,ab8 <putch>
    18f4:	001b8793          	addi	a5,s7,1
    18f8:	02f9c663          	blt	s3,a5,1924 <printf+0x340>
    18fc:	000a4503          	lbu	a0,0(s4)
    1900:	002b8b93          	addi	s7,s7,2
    1904:	9b4ff0ef          	jal	ra,ab8 <putch>
    1908:	e91ff06f          	j	1798 <printf+0x1b4>
    190c:	00000513          	li	a0,0
    1910:	dc9ff06f          	j	16d8 <printf+0xf4>
    1914:	fff00793          	li	a5,-1
    1918:	00000a93          	li	s5,0
    191c:	00fa07b3          	add	a5,s4,a5
    1920:	da9ff06f          	j	16c8 <printf+0xe4>
    1924:	00078b93          	mv	s7,a5
    1928:	e71ff06f          	j	1798 <printf+0x1b4>

0000192c <modu>:
    192c:	04a5f663          	bgeu	a1,a0,1978 <modu+0x4c>
    1930:	0405c463          	bltz	a1,1978 <modu+0x4c>
    1934:	02000713          	li	a4,32
    1938:	00100793          	li	a5,1
    193c:	00c0006f          	j	1948 <modu+0x1c>
    1940:	02070863          	beqz	a4,1970 <modu+0x44>
    1944:	0005cc63          	bltz	a1,195c <modu+0x30>
    1948:	00159593          	slli	a1,a1,0x1
    194c:	fff70713          	addi	a4,a4,-1
    1950:	00179793          	slli	a5,a5,0x1
    1954:	fea5e6e3          	bltu	a1,a0,1940 <modu+0x14>
    1958:	00078e63          	beqz	a5,1974 <modu+0x48>
    195c:	0017d793          	srli	a5,a5,0x1
    1960:	00b56463          	bltu	a0,a1,1968 <modu+0x3c>
    1964:	40b50533          	sub	a0,a0,a1
    1968:	0015d593          	srli	a1,a1,0x1
    196c:	fe0798e3          	bnez	a5,195c <modu+0x30>
    1970:	00008067          	ret
    1974:	00008067          	ret
    1978:	00100793          	li	a5,1
    197c:	fe1ff06f          	j	195c <modu+0x30>

00001980 <divu>:
    1980:	00050713          	mv	a4,a0
    1984:	04a5fc63          	bgeu	a1,a0,19dc <divu+0x5c>
    1988:	0405ca63          	bltz	a1,19dc <divu+0x5c>
    198c:	02000513          	li	a0,32
    1990:	00100793          	li	a5,1
    1994:	00c0006f          	j	19a0 <divu+0x20>
    1998:	04050063          	beqz	a0,19d8 <divu+0x58>
    199c:	0005cc63          	bltz	a1,19b4 <divu+0x34>
    19a0:	00159593          	slli	a1,a1,0x1
    19a4:	fff50513          	addi	a0,a0,-1
    19a8:	00179793          	slli	a5,a5,0x1
    19ac:	fee5e6e3          	bltu	a1,a4,1998 <divu+0x18>
    19b0:	02078263          	beqz	a5,19d4 <divu+0x54>
    19b4:	00000513          	li	a0,0
    19b8:	00b76663          	bltu	a4,a1,19c4 <divu+0x44>
    19bc:	40b70733          	sub	a4,a4,a1
    19c0:	00f56533          	or	a0,a0,a5
    19c4:	0017d793          	srli	a5,a5,0x1
    19c8:	0015d593          	srli	a1,a1,0x1
    19cc:	fe0796e3          	bnez	a5,19b8 <divu+0x38>
    19d0:	00008067          	ret
    19d4:	00000513          	li	a0,0
    19d8:	00008067          	ret
    19dc:	00100793          	li	a5,1
    19e0:	00000513          	li	a0,0
    19e4:	fd5ff06f          	j	19b8 <divu+0x38>

000019e8 <strlen>:
    19e8:	00054783          	lbu	a5,0(a0)
    19ec:	00050713          	mv	a4,a0
    19f0:	00000513          	li	a0,0
    19f4:	00078c63          	beqz	a5,1a0c <strlen+0x24>
    19f8:	00150513          	addi	a0,a0,1
    19fc:	00a707b3          	add	a5,a4,a0
    1a00:	0007c783          	lbu	a5,0(a5)
    1a04:	fe079ae3          	bnez	a5,19f8 <strlen+0x10>
    1a08:	00008067          	ret
    1a0c:	00008067          	ret
